   1               		.file	"debug.c"
   2               	__SREG__ = 0x3f
   3               	__SP_H__ = 0x3e
   4               	__SP_L__ = 0x3d
   5               	__CCP__  = 0x34
   6               	__tmp_reg__ = 0
   7               	__zero_reg__ = 1
  15               	.Ltext0:
  16               	.global	debug_struct_init
  18               	debug_struct_init:
  19               	.LFB6:
  20               	.LM1:
  21               	/* prologue: function */
  22               	/* frame size = 0 */
  23               	.LM2:
  24 0000 1092 0000 		sts debug,__zero_reg__
  25               	.LM3:
  26 0004 1092 0000 		sts debug+1,__zero_reg__
  27               	.LM4:
  28 0008 81E0      		ldi r24,lo8(1)
  29 000a 8093 0000 		sts debug+2,r24
  30 000e 80E0      		ldi r24,lo8(0)
  31 0010 90E0      		ldi r25,hi8(0)
  32               	.L2:
  33               	.LBB32:
  34               	.LM5:
  35 0012 FC01      		movw r30,r24
  36 0014 E050      		subi r30,lo8(-(debug))
  37 0016 F040      		sbci r31,hi8(-(debug))
  38 0018 1382      		std Z+3,__zero_reg__
  39 001a 0196      		adiw r24,1
  40               	.LM6:
  41 001c 8032      		cpi r24,32
  42 001e 9105      		cpc r25,__zero_reg__
  43 0020 01F4      		brne .L2
  44               	.LBE32:
  45               	.LM7:
  46 0022 1092 0000 		sts debug+35,__zero_reg__
  47 0026 E0E0      		ldi r30,lo8(debug+36)
  48 0028 F0E0      		ldi r31,hi8(debug+36)
  49               	.L3:
  50               	.LBB33:
  51               	.LM8:
  52 002a 1192      		st Z+,__zero_reg__
  53               	.LM9:
  54 002c 80E0      		ldi r24,hi8(debug+44)
  55 002e E030      		cpi r30,lo8(debug+44)
  56 0030 F807      		cpc r31,r24
  57 0032 01F4      		brne .L3
  58               	.LBE33:
  59               	.LM10:
  60 0034 1082      		st Z,__zero_reg__
  61               	/* epilogue start */
  62               	.LM11:
  63 0036 0895      		ret
  64               	.LFE6:
  66               	.global	debug_timings_init
  68               	debug_timings_init:
  69               	.LFB7:
  70               	.LM12:
  71               	/* prologue: function */
  72               	/* frame size = 0 */
  73               	.LM13:
  74 0038 1092 8000 		sts 128,__zero_reg__
  75               	.LM14:
  76 003c 1092 8100 		sts 129,__zero_reg__
  77               	.LM15:
  78 0040 1092 8200 		sts 130,__zero_reg__
  79               	.LM16:
  80 0044 1092 6F00 		sts 111,__zero_reg__
  81               	.LM17:
  82 0048 8FEF      		ldi r24,lo8(-1)
  83 004a 86BB      		out 54-32,r24
  84               	.LM18:
  85 004c E8E6      		ldi r30,lo8(104)
  86 004e F0E0      		ldi r31,hi8(104)
  87 0050 8081      		ld r24,Z
  88 0052 8260      		ori r24,lo8(2)
  89 0054 8083      		st Z,r24
  90               	.LM19:
  91 0056 ECE6      		ldi r30,lo8(108)
  92 0058 F0E0      		ldi r31,hi8(108)
  93 005a 8081      		ld r24,Z
  94 005c 8061      		ori r24,lo8(16)
  95 005e 8083      		st Z,r24
  96               	.LM20:
  97 0060 D99A      		sbi 59-32,1
  98               	.LM21:
  99               	/* #APP */
 100               	 ;  76 "debug.c" 1
 101 0062 7894      		sei
 102               	 ;  0 "" 2
 103               	/* epilogue start */
 104               	.LM22:
 105               	/* #NOAPP */
 106 0064 0895      		ret
 107               	.LFE7:
 109               	.global	debug_gpio_init
 111               	debug_gpio_init:
 112               	.LFB8:
 113               	.LM23:
 114               	/* prologue: function */
 115               	/* frame size = 0 */
 116               	.LM24:
 117 0066 3D9A      		sbi 39-32,5
 118               	.LM25:
 119 0068 459A      		sbi 40-32,5
 120               	.LM26:
 121 006a 3C98      		cbi 39-32,4
 122               	.LM27:
 123 006c 449A      		sbi 40-32,4
 124               	/* epilogue start */
 125               	.LM28:
 126 006e 0895      		ret
 127               	.LFE8:
 129               	.global	debug_tx_high
 131               	debug_tx_high:
 132               	.LFB9:
 133               	.LM29:
 134               	/* prologue: function */
 135               	/* frame size = 0 */
 136               	.LM30:
 137 0070 459A      		sbi 40-32,5
 138               	/* epilogue start */
 139               	.LM31:
 140 0072 0895      		ret
 141               	.LFE9:
 143               	.global	debug_tx_low
 145               	debug_tx_low:
 146               	.LFB10:
 147               	.LM32:
 148               	/* prologue: function */
 149               	/* frame size = 0 */
 150               	.LM33:
 151 0074 4598      		cbi 40-32,5
 152               	/* epilogue start */
 153               	.LM34:
 154 0076 0895      		ret
 155               	.LFE10:
 157               	.global	debug_tx_set
 159               	debug_tx_set:
 160               	.LFB11:
 161               	.LM35:
 162               	.LVL0:
 163               	/* prologue: function */
 164               	/* frame size = 0 */
 165               	.LM36:
 166 0078 8130      		cpi r24,lo8(1)
 167 007a 01F4      		brne .L16
 168               	.LBB34:
 169               	.LBB35:
 170               	.LM37:
 171 007c 459A      		sbi 40-32,5
 172 007e 0895      		ret
 173               	.L16:
 174               	.LBE35:
 175               	.LBE34:
 176               	.LBB36:
 177               	.LBB37:
 178               	.LM38:
 179 0080 4598      		cbi 40-32,5
 180 0082 0895      		ret
 181               	.LBE37:
 182               	.LBE36:
 183               	.LFE11:
 185               	.global	debug_rx_get
 187               	debug_rx_get:
 188               	.LFB12:
 189               	.LM39:
 190               	/* prologue: function */
 191               	/* frame size = 0 */
 192               	.LM40:
 193 0084 86B1      		in r24,38-32
 194 0086 90E0      		ldi r25,lo8(0)
 195 0088 24E0      		ldi r18,4
 196 008a 9695      	1:	lsr r25
 197 008c 8795      		ror r24
 198 008e 2A95      		dec r18
 199 0090 01F4      		brne 1b
 200               	.LM41:
 201 0092 8170      		andi r24,lo8(1)
 202               	/* epilogue start */
 203 0094 0895      		ret
 204               	.LFE12:
 206               	.global	debug_delay
 208               	debug_delay:
 209               	.LFB13:
 210               	.LM42:
 211               	.LVL1:
 212               	/* prologue: function */
 213               	/* frame size = 0 */
 214 0096 9C01      		movw r18,r24
 215               	.LM43:
 216 0098 1092 8500 		sts (132)+1,__zero_reg__
 217 009c 1092 8400 		sts 132,__zero_reg__
 218               	.LM44:
 219 00a0 81E0      		ldi r24,lo8(1)
 220               	.LVL2:
 221 00a2 8093 8100 		sts 129,r24
 222               	.L22:
 223               	.LM45:
 224 00a6 8091 8400 		lds r24,132
 225 00aa 9091 8500 		lds r25,(132)+1
 226 00ae 8217      		cp r24,r18
 227 00b0 9307      		cpc r25,r19
 228 00b2 00F0      		brlo .L22
 229               	.LM46:
 230 00b4 1092 8100 		sts 129,__zero_reg__
 231               	/* epilogue start */
 232               	.LM47:
 233 00b8 0895      		ret
 234               	.LFE13:
 236               	.global	debug_tx_byte
 238               	debug_tx_byte:
 239               	.LFB14:
 240               	.LM48:
 241               	.LVL3:
 242 00ba DF93      		push r29
 243 00bc CF93      		push r28
 244 00be CDB7      		in r28,__SP_L__
 245 00c0 DEB7      		in r29,__SP_H__
 246 00c2 2A97      		sbiw r28,10
 247 00c4 0FB6      		in __tmp_reg__,__SREG__
 248 00c6 F894      		cli
 249 00c8 DEBF      		out __SP_H__,r29
 250 00ca 0FBE      		out __SREG__,__tmp_reg__
 251 00cc CDBF      		out __SP_L__,r28
 252               	/* prologue: function */
 253               	/* frame size = 10 */
 254               	.LM49:
 255 00ce FE01      		movw r30,r28
 256 00d0 3196      		adiw r30,1
 257 00d2 9AE0      		ldi r25,lo8(10)
 258 00d4 DF01      		movw r26,r30
 259 00d6 1D92      		st X+,__zero_reg__
 260 00d8 9A95      	        dec r25
 261 00da 01F4      		brne .-6
 262 00dc 91E0      		ldi r25,lo8(1)
 263 00de 9A87      		std Y+10,r25
 264 00e0 FE01      		movw r30,r28
 265 00e2 3296      		adiw r30,2
 266 00e4 20E0      		ldi r18,lo8(0)
 267 00e6 30E0      		ldi r19,hi8(0)
 268               	.LBB38:
 269               	.LM50:
 270 00e8 482F      		mov r20,r24
 271 00ea 50E0      		ldi r21,lo8(0)
 272               	.LVL4:
 273               	.LM51:
 274 00ec 61E0      		ldi r22,lo8(1)
 275               	.LVL5:
 276               	.L28:
 277               	.LM52:
 278 00ee CA01      		movw r24,r20
 279 00f0 022E      		mov r0,r18
 280 00f2 00C0      		rjmp 2f
 281 00f4 9595      	1:	asr r25
 282 00f6 8795      		ror r24
 283 00f8 0A94      	2:	dec r0
 284 00fa 02F4      		brpl 1b
 285 00fc 80FF      		sbrs r24,0
 286 00fe 00C0      		rjmp .L26
 287               	.LM53:
 288 0100 6083      		st Z,r22
 289 0102 00C0      		rjmp .L27
 290               	.L26:
 291               	.LM54:
 292 0104 1082      		st Z,__zero_reg__
 293               	.L27:
 294 0106 2F5F      		subi r18,lo8(-(1))
 295 0108 3F4F      		sbci r19,hi8(-(1))
 296 010a 3196      		adiw r30,1
 297               	.LM55:
 298 010c 2830      		cpi r18,8
 299 010e 3105      		cpc r19,__zero_reg__
 300 0110 01F4      		brne .L28
 301               	.LBE38:
 302               	.LM56:
 303 0112 6FB7      		in r22,__SREG__
 304               	.LVL6:
 305               	.LM57:
 306               	/* #APP */
 307               	 ;  166 "debug.c" 1
 308 0114 F894      		cli
 309               	 ;  0 "" 2
 310               	/* #NOAPP */
 311               	.LBB39:
 312               	.LM58:
 313 0116 2091 0000 		lds r18,BAUD_38400
 314 011a 3091 0000 		lds r19,(BAUD_38400)+1
 315 011e FE01      		movw r30,r28
 316 0120 3196      		adiw r30,1
 317               	.LBB40:
 318               	.LBB41:
 319               	.LM59:
 320 0122 71E0      		ldi r23,lo8(1)
 321               	.LBE41:
 322               	.LBE40:
 323               	.LM60:
 324 0124 AE01      		movw r20,r28
 325               	.LVL7:
 326 0126 455F      		subi r20,lo8(-(11))
 327 0128 5F4F      		sbci r21,hi8(-(11))
 328               	.L32:
 329               	.LBB43:
 330               	.LBB44:
 331               	.LM61:
 332 012a 8081      		ld r24,Z
 333 012c 8130      		cpi r24,lo8(1)
 334 012e 01F4      		brne .L29
 335               	.LBB45:
 336               	.LBB46:
 337               	.LM62:
 338 0130 459A      		sbi 40-32,5
 339 0132 00C0      		rjmp .L30
 340               	.L29:
 341               	.LBE46:
 342               	.LBE45:
 343               	.LBB47:
 344               	.LBB48:
 345               	.LM63:
 346 0134 4598      		cbi 40-32,5
 347               	.L30:
 348               	.LBE48:
 349               	.LBE47:
 350               	.LBE44:
 351               	.LBE43:
 352               	.LBB49:
 353               	.LBB42:
 354               	.LM64:
 355 0136 1092 8500 		sts (132)+1,__zero_reg__
 356 013a 1092 8400 		sts 132,__zero_reg__
 357               	.LM65:
 358 013e 7093 8100 		sts 129,r23
 359               	.L31:
 360               	.LM66:
 361 0142 8091 8400 		lds r24,132
 362 0146 9091 8500 		lds r25,(132)+1
 363 014a 8217      		cp r24,r18
 364 014c 9307      		cpc r25,r19
 365 014e 00F0      		brlo .L31
 366               	.LM67:
 367 0150 1092 8100 		sts 129,__zero_reg__
 368 0154 3196      		adiw r30,1
 369               	.LBE42:
 370               	.LBE49:
 371               	.LM68:
 372 0156 E417      		cp r30,r20
 373 0158 F507      		cpc r31,r21
 374 015a 01F4      		brne .L32
 375               	.LBE39:
 376               	.LM69:
 377 015c 6FBF      		out __SREG__,r22
 378               	/* epilogue start */
 379               	.LM70:
 380 015e 2A96      		adiw r28,10
 381 0160 0FB6      		in __tmp_reg__,__SREG__
 382 0162 F894      		cli
 383 0164 DEBF      		out __SP_H__,r29
 384 0166 0FBE      		out __SREG__,__tmp_reg__
 385 0168 CDBF      		out __SP_L__,r28
 386 016a CF91      		pop r28
 387 016c DF91      		pop r29
 388 016e 0895      		ret
 389               	.LFE14:
 391               	.global	debug_rx_byte
 393               	debug_rx_byte:
 394               	.LFB15:
 395               	.LM71:
 396               	/* prologue: function */
 397               	/* frame size = 0 */
 398               	.LBB50:
 399               	.LBB51:
 400               	.LM72:
 401 0170 349B      		sbis 38-32,4
 402 0172 00C0      		rjmp .L38
 403               	.LBE51:
 404               	.LBE50:
 405               	.LM73:
 406 0174 83E0      		ldi r24,lo8(3)
 407 0176 8093 0000 		sts debug,r24
 408 017a 00C0      		rjmp .L39
 409               	.L40:
 410               	.LBB52:
 411               	.LBB64:
 412               	.LBB65:
 413               	.LM74:
 414 017c 8091 8400 		lds r24,132
 415 0180 9091 8500 		lds r25,(132)+1
 416 0184 8217      		cp r24,r18
 417 0186 9307      		cpc r25,r19
 418 0188 00F0      		brlo .L40
 419               	.LM75:
 420 018a 1092 8100 		sts 129,__zero_reg__
 421               	.LBE65:
 422               	.LBE64:
 423               	.LBB53:
 424               	.LM76:
 425 018e 6091 0000 		lds r22,BAUD_38400+2
 426 0192 7091 0000 		lds r23,(BAUD_38400+2)+1
 427 0196 30E0      		ldi r19,lo8(0)
 428               	.LVL8:
 429 0198 40E0      		ldi r20,lo8(0)
 430               	.LVL9:
 431 019a 20E0      		ldi r18,lo8(0)
 432               	.LVL10:
 433               	.LM77:
 434 019c E2E0      		ldi r30,lo8(2)
 435               	.LM78:
 436 019e 51E0      		ldi r21,lo8(1)
 437               	.L51:
 438               	.LM79:
 439 01a0 2223      		tst r18
 440 01a2 01F4      		brne .L41
 441               	.LBB62:
 442               	.LBB63:
 443               	.LM80:
 444 01a4 349B      		sbis 38-32,4
 445 01a6 41E0      		ldi r20,lo8(1)
 446               	.L42:
 447               	.LBE63:
 448               	.LBE62:
 449               	.LBB60:
 450               	.LBB61:
 451               	.LM81:
 452 01a8 1092 8500 		sts (132)+1,__zero_reg__
 453 01ac 1092 8400 		sts 132,__zero_reg__
 454               	.LM82:
 455 01b0 5093 8100 		sts 129,r21
 456               	.L43:
 457               	.LM83:
 458 01b4 8091 8400 		lds r24,132
 459 01b8 9091 8500 		lds r25,(132)+1
 460 01bc 8617      		cp r24,r22
 461 01be 9707      		cpc r25,r23
 462 01c0 00F0      		brlo .L43
 463 01c2 00C0      		rjmp .L57
 464               	.L41:
 465               	.LBE61:
 466               	.LBE60:
 467               	.LM84:
 468 01c4 822F      		mov r24,r18
 469 01c6 8150      		subi r24,lo8(-(-1))
 470 01c8 8830      		cpi r24,lo8(8)
 471 01ca 00F4      		brsh .L45
 472               	.LBB58:
 473               	.LBB59:
 474               	.LM85:
 475 01cc 3499      		sbic 38-32,4
 476               	.LBE59:
 477               	.LBE58:
 478               	.LM86:
 479 01ce 3068      		ori r19,lo8(-128)
 480               	.L46:
 481               	.LM87:
 482 01d0 2830      		cpi r18,lo8(8)
 483 01d2 01F0      		breq .L47
 484               	.LM88:
 485 01d4 3695      		lsr r19
 486               	.L47:
 487               	.LBB56:
 488               	.LBB57:
 489               	.LM89:
 490 01d6 1092 8500 		sts (132)+1,__zero_reg__
 491 01da 1092 8400 		sts 132,__zero_reg__
 492               	.LM90:
 493 01de 5093 8100 		sts 129,r21
 494               	.L48:
 495               	.LM91:
 496 01e2 8091 8400 		lds r24,132
 497 01e6 9091 8500 		lds r25,(132)+1
 498 01ea 8617      		cp r24,r22
 499 01ec 9707      		cpc r25,r23
 500 01ee 00F0      		brlo .L48
 501               	.L57:
 502               	.LM92:
 503 01f0 1092 8100 		sts 129,__zero_reg__
 504 01f4 00C0      		rjmp .L44
 505               	.L45:
 506               	.LBE57:
 507               	.LBE56:
 508               	.LM93:
 509 01f6 2930      		cpi r18,lo8(9)
 510 01f8 01F4      		brne .L44
 511               	.LBB54:
 512               	.LBB55:
 513               	.LM94:
 514 01fa 349B      		sbis 38-32,4
 515 01fc 00C0      		rjmp .L49
 516               	.LBE55:
 517               	.LBE54:
 518               	.LM95:
 519 01fe 4170      		andi r20,lo8(1)
 520               	.LM96:
 521 0200 4130      		cpi r20,lo8(1)
 522 0202 01F4      		brne .L50
 523               	.LM97:
 524 0204 3093 0000 		sts debug+1,r19
 525               	.LM98:
 526 0208 1092 0000 		sts debug,__zero_reg__
 527 020c 00C0      		rjmp .L44
 528               	.L50:
 529               	.LM99:
 530 020e 1092 0000 		sts debug+1,__zero_reg__
 531               	.LM100:
 532 0212 5093 0000 		sts debug,r21
 533               	.L44:
 534               	.LM101:
 535 0216 2F5F      		subi r18,lo8(-(1))
 536 0218 2A30      		cpi r18,lo8(10)
 537 021a 01F0      		breq .+2
 538 021c 00C0      		rjmp .L51
 539               	.L39:
 540               	.LBE53:
 541               	.LBE52:
 542               	.LM102:
 543 021e 8091 0000 		lds r24,debug+1
 544               	/* epilogue start */
 545               	.LM103:
 546 0222 0895      		ret
 547               	.LVL11:
 548               	.L38:
 549               	.LBB69:
 550               	.LM104:
 551 0224 2091 0000 		lds r18,BAUD_38400+4
 552 0228 3091 0000 		lds r19,(BAUD_38400+4)+1
 553               	.LBB67:
 554               	.LBB66:
 555               	.LM105:
 556 022c 1092 8500 		sts (132)+1,__zero_reg__
 557 0230 1092 8400 		sts 132,__zero_reg__
 558               	.LM106:
 559 0234 81E0      		ldi r24,lo8(1)
 560 0236 8093 8100 		sts 129,r24
 561 023a 00C0      		rjmp .L40
 562               	.LVL12:
 563               	.L49:
 564               	.LBE66:
 565               	.LBE67:
 566               	.LBB68:
 567               	.LM107:
 568 023c 1092 0000 		sts debug+1,__zero_reg__
 569               	.LM108:
 570 0240 E093 0000 		sts debug,r30
 571 0244 00C0      		rjmp .L44
 572               	.LBE68:
 573               	.LBE69:
 574               	.LFE15:
 576               	.global	debug_rx_byte_get
 578               	debug_rx_byte_get:
 579               	.LFB16:
 580               	.LM109:
 581               	/* prologue: function */
 582               	/* frame size = 0 */
 583               	.LM110:
 584 0246 8091 0000 		lds r24,debug+1
 585               	/* epilogue start */
 586               	.LM111:
 587 024a 0895      		ret
 588               	.LFE16:
 590               	.global	debug_rx_byte_clear
 592               	debug_rx_byte_clear:
 593               	.LFB17:
 594               	.LM112:
 595               	/* prologue: function */
 596               	/* frame size = 0 */
 597               	.LM113:
 598 024c 1092 0000 		sts debug+1,__zero_reg__
 599               	/* epilogue start */
 600               	.LM114:
 601 0250 0895      		ret
 602               	.LFE17:
 604               	.global	debug_rx_byte_set
 606               	debug_rx_byte_set:
 607               	.LFB18:
 608               	.LM115:
 609               	.LVL13:
 610               	/* prologue: function */
 611               	/* frame size = 0 */
 612               	.LM116:
 613 0252 8093 0000 		sts debug+1,r24
 614               	/* epilogue start */
 615               	.LM117:
 616 0256 0895      		ret
 617               	.LFE18:
 619               	.global	debug_tx_hex
 621               	debug_tx_hex:
 622               	.LFB19:
 623               	.LM118:
 624               	.LVL14:
 625 0258 BF92      		push r11
 626 025a CF92      		push r12
 627 025c DF92      		push r13
 628 025e EF92      		push r14
 629 0260 FF92      		push r15
 630 0262 0F93      		push r16
 631 0264 1F93      		push r17
 632 0266 CF93      		push r28
 633 0268 DF93      		push r29
 634               	/* prologue: function */
 635               	/* frame size = 0 */
 636 026a 7B01      		movw r14,r22
 637 026c 8C01      		movw r16,r24
 638               	.LM119:
 639 026e 8FEF      		ldi r24,lo8(255)
 640 0270 E816      		cp r14,r24
 641 0272 F104      		cpc r15,__zero_reg__
 642 0274 0105      		cpc r16,__zero_reg__
 643 0276 1105      		cpc r17,__zero_reg__
 644 0278 01F0      		breq .+2
 645 027a 00F4      		brsh .L65
 646               	.LVL15:
 647 027c C8E0      		ldi r28,lo8(8)
 648 027e D0E0      		ldi r29,hi8(8)
 649               	.LVL16:
 650 0280 52E0      		ldi r21,lo8(2)
 651 0282 C52E      		mov r12,r21
 652 0284 D12C      		mov r13,__zero_reg__
 653               	.LVL17:
 654 0286 00C0      		rjmp .L66
 655               	.LVL18:
 656               	.L65:
 657               	.LM120:
 658 0288 80E0      		ldi r24,lo8(65536)
 659 028a E816      		cp r14,r24
 660 028c 80E0      		ldi r24,hi8(65536)
 661 028e F806      		cpc r15,r24
 662 0290 81E0      		ldi r24,hlo8(65536)
 663 0292 0807      		cpc r16,r24
 664 0294 80E0      		ldi r24,hhi8(65536)
 665 0296 1807      		cpc r17,r24
 666 0298 00F0      		brlo .L67
 667 029a C0E2      		ldi r28,lo8(32)
 668 029c D0E0      		ldi r29,hi8(32)
 669               	.LVL19:
 670 029e 48E0      		ldi r20,lo8(8)
 671 02a0 C42E      		mov r12,r20
 672 02a2 D12C      		mov r13,__zero_reg__
 673               	.LVL20:
 674 02a4 00C0      		rjmp .L66
 675               	.LVL21:
 676               	.L67:
 677 02a6 C0E1      		ldi r28,lo8(16)
 678 02a8 D0E0      		ldi r29,hi8(16)
 679               	.LVL22:
 680 02aa 34E0      		ldi r19,lo8(4)
 681 02ac C32E      		mov r12,r19
 682 02ae D12C      		mov r13,__zero_reg__
 683               	.LVL23:
 684               	.L66:
 685               	.LM121:
 686 02b0 80E3      		ldi r24,lo8(48)
 687 02b2 0E94 0000 		call debug_tx_byte
 688               	.LM122:
 689 02b6 88E7      		ldi r24,lo8(120)
 690 02b8 0E94 0000 		call debug_tx_byte
 691 02bc BB24      		clr r11
 692               	.LVL24:
 693 02be 00C0      		rjmp .L68
 694               	.LVL25:
 695               	.L71:
 696               	.LBB70:
 697               	.LM123:
 698 02c0 2497      		sbiw r28,4
 699               	.LM124:
 700 02c2 D801      		movw r26,r16
 701 02c4 C701      		movw r24,r14
 702               	.LVL26:
 703 02c6 0C2E      		mov r0,r28
 704 02c8 00C0      		rjmp 2f
 705 02ca B695      	1:	lsr r27
 706 02cc A795      		ror r26
 707 02ce 9795      		ror r25
 708 02d0 8795      		ror r24
 709 02d2 0A94      	2:	dec r0
 710 02d4 02F4      		brpl 1b
 711 02d6 90E0      		ldi r25,lo8(0)
 712               	.LVL27:
 713 02d8 8F70      		andi r24,lo8(15)
 714 02da 9070      		andi r25,hi8(15)
 715               	.LVL28:
 716               	.LM125:
 717 02dc 8A30      		cpi r24,10
 718 02de 9105      		cpc r25,__zero_reg__
 719 02e0 00F0      		brlo .L69
 720               	.LM126:
 721 02e2 C796      		adiw r24,55
 722               	.LVL29:
 723 02e4 00C0      		rjmp .L70
 724               	.L69:
 725               	.LM127:
 726 02e6 C096      		adiw r24,48
 727               	.LVL30:
 728               	.L70:
 729               	.LM128:
 730 02e8 0E94 0000 		call debug_tx_byte
 731               	.LVL31:
 732               	.LM129:
 733 02ec B394      		inc r11
 734               	.L68:
 735 02ee 8B2D      		mov r24,r11
 736 02f0 90E0      		ldi r25,lo8(0)
 737               	.LVL32:
 738 02f2 8C15      		cp r24,r12
 739 02f4 9D05      		cpc r25,r13
 740 02f6 00F0      		brlo .L71
 741               	.LVL33:
 742               	/* epilogue start */
 743               	.LBE70:
 744               	.LM130:
 745 02f8 DF91      		pop r29
 746 02fa CF91      		pop r28
 747               	.LVL34:
 748 02fc 1F91      		pop r17
 749 02fe 0F91      		pop r16
 750 0300 FF90      		pop r15
 751 0302 EF90      		pop r14
 752               	.LVL35:
 753 0304 DF90      		pop r13
 754 0306 CF90      		pop r12
 755               	.LVL36:
 756 0308 BF90      		pop r11
 757 030a 0895      		ret
 758               	.LFE19:
 760               	.global	debug_tx_bin
 762               	debug_tx_bin:
 763               	.LFB20:
 764               	.LM131:
 765               	.LVL37:
 766 030c AF92      		push r10
 767 030e BF92      		push r11
 768 0310 CF92      		push r12
 769 0312 DF92      		push r13
 770 0314 EF92      		push r14
 771 0316 FF92      		push r15
 772 0318 0F93      		push r16
 773 031a 1F93      		push r17
 774 031c CF93      		push r28
 775 031e DF93      		push r29
 776               	/* prologue: function */
 777               	/* frame size = 0 */
 778 0320 7B01      		movw r14,r22
 779 0322 8C01      		movw r16,r24
 780               	.LM132:
 781 0324 6F3F      		cpi r22,lo8(255)
 782 0326 7105      		cpc r23,__zero_reg__
 783 0328 8105      		cpc r24,__zero_reg__
 784 032a 9105      		cpc r25,__zero_reg__
 785 032c 01F0      		breq .+2
 786 032e 00F4      		brsh .L74
 787 0330 E7E0      		ldi r30,lo8(7)
 788 0332 DE2E      		mov r13,r30
 789               	.LVL38:
 790 0334 00C0      		rjmp .L75
 791               	.LVL39:
 792               	.L74:
 793               	.LM133:
 794 0336 6030      		cpi r22,lo8(65536)
 795 0338 30E0      		ldi r19,hi8(65536)
 796 033a 7307      		cpc r23,r19
 797 033c 31E0      		ldi r19,hlo8(65536)
 798 033e 8307      		cpc r24,r19
 799 0340 30E0      		ldi r19,hhi8(65536)
 800 0342 9307      		cpc r25,r19
 801 0344 00F0      		brlo .L76
 802 0346 7FE1      		ldi r23,lo8(31)
 803 0348 D72E      		mov r13,r23
 804               	.LVL40:
 805 034a 00C0      		rjmp .L75
 806               	.LVL41:
 807               	.L76:
 808 034c 6FE0      		ldi r22,lo8(15)
 809 034e D62E      		mov r13,r22
 810               	.LVL42:
 811               	.L75:
 812               	.LM134:
 813 0350 80E3      		ldi r24,lo8(48)
 814 0352 0E94 0000 		call debug_tx_byte
 815               	.LM135:
 816 0356 82E6      		ldi r24,lo8(98)
 817 0358 0E94 0000 		call debug_tx_byte
 818 035c C0E0      		ldi r28,lo8(0)
 819 035e D0E0      		ldi r29,hi8(0)
 820               	.LM136:
 821 0360 CD2C      		mov r12,r13
 822 0362 DD24      		clr r13
 823               	.LVL43:
 824               	.LBB71:
 825               	.LM137:
 826 0364 5601      		movw r10,r12
 827 0366 0894      		sec
 828 0368 A11C      		adc r10,__zero_reg__
 829 036a B11C      		adc r11,__zero_reg__
 830               	.L79:
 831               	.LM138:
 832 036c C601      		movw r24,r12
 833 036e 8C1B      		sub r24,r28
 834 0370 9D0B      		sbc r25,r29
 835 0372 A801      		movw r20,r16
 836 0374 9701      		movw r18,r14
 837 0376 00C0      		rjmp 2f
 838 0378 5695      	1:	lsr r21
 839 037a 4795      		ror r20
 840 037c 3795      		ror r19
 841 037e 2795      		ror r18
 842 0380 8A95      	2:	dec r24
 843 0382 02F4      		brpl 1b
 844 0384 DA01      		movw r26,r20
 845 0386 C901      		movw r24,r18
 846 0388 8170      		andi r24,lo8(1)
 847 038a 9070      		andi r25,hi8(1)
 848 038c 892B      		or r24,r25
 849 038e 01F0      		breq .L77
 850               	.LM139:
 851 0390 81E3      		ldi r24,lo8(49)
 852 0392 00C0      		rjmp .L82
 853               	.L77:
 854               	.LM140:
 855 0394 80E3      		ldi r24,lo8(48)
 856               	.L82:
 857 0396 0E94 0000 		call debug_tx_byte
 858 039a 2196      		adiw r28,1
 859               	.LM141:
 860 039c CA15      		cp r28,r10
 861 039e DB05      		cpc r29,r11
 862 03a0 01F4      		brne .L79
 863               	/* epilogue start */
 864               	.LBE71:
 865               	.LM142:
 866 03a2 DF91      		pop r29
 867 03a4 CF91      		pop r28
 868 03a6 1F91      		pop r17
 869 03a8 0F91      		pop r16
 870 03aa FF90      		pop r15
 871 03ac EF90      		pop r14
 872               	.LVL44:
 873 03ae DF90      		pop r13
 874 03b0 CF90      		pop r12
 875 03b2 BF90      		pop r11
 876 03b4 AF90      		pop r10
 877 03b6 0895      		ret
 878               	.LFE20:
 880               	.global	debug_tx_nl
 882               	debug_tx_nl:
 883               	.LFB21:
 884               	.LM143:
 885               	/* prologue: function */
 886               	/* frame size = 0 */
 887               	.LM144:
 888 03b8 8DE0      		ldi r24,lo8(13)
 889 03ba 0E94 0000 		call debug_tx_byte
 890               	.LM145:
 891 03be 8AE0      		ldi r24,lo8(10)
 892 03c0 0E94 0000 		call debug_tx_byte
 893               	/* epilogue start */
 894               	.LM146:
 895 03c4 0895      		ret
 896               	.LFE21:
 898               	.global	debug_tx_sp
 900               	debug_tx_sp:
 901               	.LFB22:
 902               	.LM147:
 903               	/* prologue: function */
 904               	/* frame size = 0 */
 905               	.LM148:
 906 03c6 80E2      		ldi r24,lo8(32)
 907 03c8 0E94 0000 		call debug_tx_byte
 908               	/* epilogue start */
 909               	.LM149:
 910 03cc 0895      		ret
 911               	.LFE22:
 913               	.global	debug_tx_cm
 915               	debug_tx_cm:
 916               	.LFB23:
 917               	.LM150:
 918               	/* prologue: function */
 919               	/* frame size = 0 */
 920               	.LM151:
 921 03ce 8CE2      		ldi r24,lo8(44)
 922 03d0 0E94 0000 		call debug_tx_byte
 923               	/* epilogue start */
 924               	.LM152:
 925 03d4 0895      		ret
 926               	.LFE23:
 928               	.global	debug_tx_text
 930               	debug_tx_text:
 931               	.LFB24:
 932               	.LM153:
 933               	.LVL45:
 934 03d6 1F93      		push r17
 935 03d8 CF93      		push r28
 936 03da DF93      		push r29
 937               	/* prologue: function */
 938               	/* frame size = 0 */
 939 03dc EC01      		movw r28,r24
 940               	.LM154:
 941 03de 10E0      		ldi r17,lo8(0)
 942               	.LVL46:
 943 03e0 00C0      		rjmp .L90
 944               	.LVL47:
 945               	.L91:
 946               	.LM155:
 947 03e2 0E94 0000 		call debug_tx_byte
 948               	.LM156:
 949 03e6 1F5F      		subi r17,lo8(-(1))
 950               	.LVL48:
 951               	.L90:
 952               	.LM157:
 953 03e8 FE01      		movw r30,r28
 954 03ea E10F      		add r30,r17
 955 03ec F11D      		adc r31,__zero_reg__
 956 03ee 8081      		ld r24,Z
 957 03f0 8823      		tst r24
 958 03f2 01F4      		brne .L91
 959               	/* epilogue start */
 960               	.LM158:
 961 03f4 DF91      		pop r29
 962 03f6 CF91      		pop r28
 963               	.LVL49:
 964 03f8 1F91      		pop r17
 965               	.LVL50:
 966 03fa 0895      		ret
 967               	.LFE24:
 969               	.global	debug_tx_text_nl
 971               	debug_tx_text_nl:
 972               	.LFB25:
 973               	.LM159:
 974               	.LVL51:
 975               	/* prologue: function */
 976               	/* frame size = 0 */
 977               	.LM160:
 978 03fc 0E94 0000 		call debug_tx_text
 979               	.LVL52:
 980               	.LM161:
 981 0400 0E94 0000 		call debug_tx_nl
 982               	/* epilogue start */
 983               	.LM162:
 984 0404 0895      		ret
 985               	.LFE25:
 987               	.global	debug_tx_text_sp
 989               	debug_tx_text_sp:
 990               	.LFB26:
 991               	.LM163:
 992               	.LVL53:
 993               	/* prologue: function */
 994               	/* frame size = 0 */
 995               	.LM164:
 996 0406 0E94 0000 		call debug_tx_text
 997               	.LVL54:
 998               	.LM165:
 999 040a 0E94 0000 		call debug_tx_sp
 1000               	/* epilogue start */
 1001               	.LM166:
 1002 040e 0895      		ret
 1003               	.LFE26:
 1005               	.global	debug_tx_text_cm
 1007               	debug_tx_text_cm:
 1008               	.LFB27:
 1009               	.LM167:
 1010               	.LVL55:
 1011               	/* prologue: function */
 1012               	/* frame size = 0 */
 1013               	.LM168:
 1014 0410 0E94 0000 		call debug_tx_text
 1015               	.LVL56:
 1016               	.LM169:
 1017 0414 0E94 0000 		call debug_tx_cm
 1018               	/* epilogue start */
 1019               	.LM170:
 1020 0418 0895      		ret
 1021               	.LFE27:
 1023               	.global	debug_determine_digit_numbers
 1025               	debug_determine_digit_numbers:
 1026               	.LFB28:
 1027               	.LM171:
 1028               	.LVL57:
 1029 041a BF92      		push r11
 1030 041c CF92      		push r12
 1031 041e DF92      		push r13
 1032 0420 EF92      		push r14
 1033 0422 FF92      		push r15
 1034 0424 0F93      		push r16
 1035 0426 1F93      		push r17
 1036               	/* prologue: function */
 1037               	/* frame size = 0 */
 1038 0428 6B01      		movw r12,r22
 1039 042a 7C01      		movw r14,r24
 1040               	.LM172:
 1041 042c 6115      		cp r22,__zero_reg__
 1042 042e 7105      		cpc r23,__zero_reg__
 1043 0430 8105      		cpc r24,__zero_reg__
 1044 0432 9105      		cpc r25,__zero_reg__
 1045 0434 01F4      		brne .L100
 1046               	.LM173:
 1047 0436 1092 0000 		sts debug+36,__zero_reg__
 1048               	.LM174:
 1049 043a 81E0      		ldi r24,lo8(1)
 1050 043c 8093 0000 		sts debug+44,r24
 1051 0440 00C0      		rjmp .L103
 1052               	.L100:
 1053 0442 BB24      		clr r11
 1054               	.LVL58:
 1055               	.L102:
 1056               	.LM175:
 1057 0444 0B2D      		mov r16,r11
 1058 0446 10E0      		ldi r17,lo8(0)
 1059               	.LVL59:
 1060 0448 0050      		subi r16,lo8(-(debug))
 1061 044a 1040      		sbci r17,hi8(-(debug))
 1062               	.LVL60:
 1063 044c C701      		movw r24,r14
 1064 044e B601      		movw r22,r12
 1065               	.LVL61:
 1066 0450 2AE0      		ldi r18,lo8(10)
 1067 0452 30E0      		ldi r19,hi8(10)
 1068 0454 40E0      		ldi r20,hlo8(10)
 1069 0456 50E0      		ldi r21,hhi8(10)
 1070 0458 0E94 0000 		call __udivmodsi4
 1071 045c F801      		movw r30,r16
 1072 045e 64A3      		std Z+36,r22
 1073               	.LM176:
 1074 0460 C701      		movw r24,r14
 1075 0462 B601      		movw r22,r12
 1076 0464 2AE0      		ldi r18,lo8(10)
 1077 0466 30E0      		ldi r19,hi8(10)
 1078 0468 40E0      		ldi r20,hlo8(10)
 1079 046a 50E0      		ldi r21,hhi8(10)
 1080 046c 0E94 0000 		call __udivmodsi4
 1081 0470 C901      		movw r24,r18
 1082 0472 DA01      		movw r26,r20
 1083 0474 6C01      		movw r12,r24
 1084 0476 7D01      		movw r14,r26
 1085               	.LM177:
 1086 0478 B394      		inc r11
 1087               	.LVL62:
 1088               	.LM178:
 1089 047a C114      		cp r12,__zero_reg__
 1090 047c D104      		cpc r13,__zero_reg__
 1091 047e E104      		cpc r14,__zero_reg__
 1092 0480 F104      		cpc r15,__zero_reg__
 1093 0482 01F4      		brne .L102
 1094               	.LM179:
 1095 0484 B092 0000 		sts debug+44,r11
 1096               	.LVL63:
 1097               	.L103:
 1098               	/* epilogue start */
 1099               	.LM180:
 1100 0488 1F91      		pop r17
 1101               	.LVL64:
 1102 048a 0F91      		pop r16
 1103 048c FF90      		pop r15
 1104 048e EF90      		pop r14
 1105 0490 DF90      		pop r13
 1106 0492 CF90      		pop r12
 1107               	.LVL65:
 1108 0494 BF90      		pop r11
 1109               	.LVL66:
 1110 0496 0895      		ret
 1111               	.LFE28:
 1113               	.global	debug_tx_number_digits
 1115               	debug_tx_number_digits:
 1116               	.LFB29:
 1117               	.LM181:
 1118 0498 1F93      		push r17
 1119               	/* prologue: function */
 1120               	/* frame size = 0 */
 1121               	.LBB72:
 1122               	.LM182:
 1123 049a 1091 0000 		lds r17,debug+44
 1124               	.LVL67:
 1125 049e 00C0      		rjmp .L106
 1126               	.L107:
 1127               	.LBB73:
 1128               	.LM183:
 1129 04a0 1150      		subi r17,lo8(-(-1))
 1130               	.LVL68:
 1131               	.LM184:
 1132 04a2 E12F      		mov r30,r17
 1133 04a4 F0E0      		ldi r31,lo8(0)
 1134 04a6 E050      		subi r30,lo8(-(debug))
 1135 04a8 F040      		sbci r31,hi8(-(debug))
 1136 04aa 84A1      		ldd r24,Z+36
 1137               	.LVL69:
 1138               	.LM185:
 1139 04ac 805D      		subi r24,lo8(-(48))
 1140               	.LVL70:
 1141 04ae 0E94 0000 		call debug_tx_byte
 1142               	.LVL71:
 1143               	.L106:
 1144               	.LBE73:
 1145               	.LM186:
 1146 04b2 1123      		tst r17
 1147 04b4 01F4      		brne .L107
 1148               	/* epilogue start */
 1149               	.LBE72:
 1150               	.LM187:
 1151 04b6 1F91      		pop r17
 1152               	.LVL72:
 1153 04b8 0895      		ret
 1154               	.LFE29:
 1156               	.global	debug_tx_number
 1158               	debug_tx_number:
 1159               	.LFB30:
 1160               	.LM188:
 1161               	.LVL73:
 1162 04ba EF92      		push r14
 1163 04bc FF92      		push r15
 1164 04be 0F93      		push r16
 1165 04c0 1F93      		push r17
 1166               	/* prologue: function */
 1167               	/* frame size = 0 */
 1168 04c2 7B01      		movw r14,r22
 1169 04c4 8C01      		movw r16,r24
 1170               	.LM189:
 1171 04c6 97FF      		sbrs r25,7
 1172 04c8 00C0      		rjmp .L110
 1173               	.LM190:
 1174 04ca 8DE2      		ldi r24,lo8(45)
 1175 04cc 0E94 0000 		call debug_tx_byte
 1176               	.LVL74:
 1177               	.LM191:
 1178 04d0 1095      		com r17
 1179 04d2 0095      		com r16
 1180 04d4 F094      		com r15
 1181 04d6 E094      		com r14
 1182 04d8 E11C      		adc r14,__zero_reg__
 1183 04da F11C      		adc r15,__zero_reg__
 1184 04dc 011D      		adc r16,__zero_reg__
 1185 04de 111D      		adc r17,__zero_reg__
 1186               	.LVL75:
 1187               	.L110:
 1188               	.LM192:
 1189 04e0 C801      		movw r24,r16
 1190 04e2 B701      		movw r22,r14
 1191 04e4 0E94 0000 		call debug_determine_digit_numbers
 1192               	.LM193:
 1193 04e8 0E94 0000 		call debug_tx_number_digits
 1194               	/* epilogue start */
 1195               	.LM194:
 1196 04ec 1F91      		pop r17
 1197 04ee 0F91      		pop r16
 1198 04f0 FF90      		pop r15
 1199 04f2 EF90      		pop r14
 1200               	.LVL76:
 1201 04f4 0895      		ret
 1202               	.LFE30:
 1204               	.global	debug_tx_number_nl
 1206               	debug_tx_number_nl:
 1207               	.LFB31:
 1208               	.LM195:
 1209               	.LVL77:
 1210               	/* prologue: function */
 1211               	/* frame size = 0 */
 1212               	.LM196:
 1213 04f6 0E94 0000 		call debug_tx_number
 1214               	.LVL78:
 1215               	.LM197:
 1216 04fa 0E94 0000 		call debug_tx_nl
 1217               	/* epilogue start */
 1218               	.LM198:
 1219 04fe 0895      		ret
 1220               	.LFE31:
 1222               	.global	debug_tx_number_sp
 1224               	debug_tx_number_sp:
 1225               	.LFB32:
 1226               	.LM199:
 1227               	.LVL79:
 1228               	/* prologue: function */
 1229               	/* frame size = 0 */
 1230               	.LM200:
 1231 0500 0E94 0000 		call debug_tx_number
 1232               	.LVL80:
 1233               	.LM201:
 1234 0504 0E94 0000 		call debug_tx_sp
 1235               	/* epilogue start */
 1236               	.LM202:
 1237 0508 0895      		ret
 1238               	.LFE32:
 1240               		.data
 1241               	.LC0:
 1242 0000 2C00      		.string	","
 1243               		.text
 1244               	.global	debug_tx_number_cm
 1246               	debug_tx_number_cm:
 1247               	.LFB33:
 1248               	.LM203:
 1249               	.LVL81:
 1250               	/* prologue: function */
 1251               	/* frame size = 0 */
 1252               	.LM204:
 1253 050a 0E94 0000 		call debug_tx_number
 1254               	.LVL82:
 1255               	.LM205:
 1256 050e 80E0      		ldi r24,lo8(.LC0)
 1257 0510 90E0      		ldi r25,hi8(.LC0)
 1258 0512 0E94 0000 		call debug_tx_text
 1259               	/* epilogue start */
 1260               	.LM206:
 1261 0516 0895      		ret
 1262               	.LFE33:
 1264               	.global	debug_tx_number_hex_nl
 1266               	debug_tx_number_hex_nl:
 1267               	.LFB34:
 1268               	.LM207:
 1269               	.LVL83:
 1270               	/* prologue: function */
 1271               	/* frame size = 0 */
 1272               	.LM208:
 1273 0518 0E94 0000 		call debug_tx_hex
 1274               	.LVL84:
 1275               	.LM209:
 1276 051c 0E94 0000 		call debug_tx_nl
 1277               	/* epilogue start */
 1278               	.LM210:
 1279 0520 0895      		ret
 1280               	.LFE34:
 1282               	.global	debug_tx_number_hex_sp
 1284               	debug_tx_number_hex_sp:
 1285               	.LFB35:
 1286               	.LM211:
 1287               	.LVL85:
 1288               	/* prologue: function */
 1289               	/* frame size = 0 */
 1290               	.LM212:
 1291 0522 0E94 0000 		call debug_tx_hex
 1292               	.LVL86:
 1293               	.LM213:
 1294 0526 0E94 0000 		call debug_tx_sp
 1295               	/* epilogue start */
 1296               	.LM214:
 1297 052a 0895      		ret
 1298               	.LFE35:
 1300               	.global	debug_tx_number_hex_cm
 1302               	debug_tx_number_hex_cm:
 1303               	.LFB36:
 1304               	.LM215:
 1305               	.LVL87:
 1306               	/* prologue: function */
 1307               	/* frame size = 0 */
 1308               	.LM216:
 1309 052c 0E94 0000 		call debug_tx_hex
 1310               	.LVL88:
 1311               	.LM217:
 1312 0530 80E0      		ldi r24,lo8(.LC0)
 1313 0532 90E0      		ldi r25,hi8(.LC0)
 1314 0534 0E94 0000 		call debug_tx_text
 1315               	/* epilogue start */
 1316               	.LM218:
 1317 0538 0895      		ret
 1318               	.LFE36:
 1320               	.global	debug_tx_parameter_nl
 1322               	debug_tx_parameter_nl:
 1323               	.LFB37:
 1324               	.LM219:
 1325               	.LVL89:
 1326 053a EF92      		push r14
 1327 053c FF92      		push r15
 1328 053e 0F93      		push r16
 1329 0540 1F93      		push r17
 1330               	/* prologue: function */
 1331               	/* frame size = 0 */
 1332 0542 7A01      		movw r14,r20
 1333 0544 8B01      		movw r16,r22
 1334               	.LM220:
 1335 0546 0E94 0000 		call debug_tx_text
 1336               	.LVL90:
 1337               	.LM221:
 1338 054a 0E94 0000 		call debug_tx_sp
 1339               	.LM222:
 1340 054e C801      		movw r24,r16
 1341 0550 B701      		movw r22,r14
 1342 0552 0E94 0000 		call debug_tx_number_nl
 1343               	/* epilogue start */
 1344               	.LM223:
 1345 0556 1F91      		pop r17
 1346 0558 0F91      		pop r16
 1347 055a FF90      		pop r15
 1348 055c EF90      		pop r14
 1349               	.LVL91:
 1350 055e 0895      		ret
 1351               	.LFE37:
 1353               	.global	debug_tx_parameter_sp
 1355               	debug_tx_parameter_sp:
 1356               	.LFB38:
 1357               	.LM224:
 1358               	.LVL92:
 1359 0560 EF92      		push r14
 1360 0562 FF92      		push r15
 1361 0564 0F93      		push r16
 1362 0566 1F93      		push r17
 1363               	/* prologue: function */
 1364               	/* frame size = 0 */
 1365 0568 7A01      		movw r14,r20
 1366 056a 8B01      		movw r16,r22
 1367               	.LM225:
 1368 056c 0E94 0000 		call debug_tx_text
 1369               	.LVL93:
 1370               	.LM226:
 1371 0570 0E94 0000 		call debug_tx_sp
 1372               	.LM227:
 1373 0574 C801      		movw r24,r16
 1374 0576 B701      		movw r22,r14
 1375 0578 0E94 0000 		call debug_tx_number_sp
 1376               	/* epilogue start */
 1377               	.LM228:
 1378 057c 1F91      		pop r17
 1379 057e 0F91      		pop r16
 1380 0580 FF90      		pop r15
 1381 0582 EF90      		pop r14
 1382               	.LVL94:
 1383 0584 0895      		ret
 1384               	.LFE38:
 1386               	.global	debug_tx_parameter_cm
 1388               	debug_tx_parameter_cm:
 1389               	.LFB39:
 1390               	.LM229:
 1391               	.LVL95:
 1392 0586 EF92      		push r14
 1393 0588 FF92      		push r15
 1394 058a 0F93      		push r16
 1395 058c 1F93      		push r17
 1396               	/* prologue: function */
 1397               	/* frame size = 0 */
 1398 058e 7A01      		movw r14,r20
 1399 0590 8B01      		movw r16,r22
 1400               	.LM230:
 1401 0592 0E94 0000 		call debug_tx_text
 1402               	.LVL96:
 1403               	.LM231:
 1404 0596 0E94 0000 		call debug_tx_sp
 1405               	.LM232:
 1406 059a C801      		movw r24,r16
 1407 059c B701      		movw r22,r14
 1408 059e 0E94 0000 		call debug_tx_number_cm
 1409               	/* epilogue start */
 1410               	.LM233:
 1411 05a2 1F91      		pop r17
 1412 05a4 0F91      		pop r16
 1413 05a6 FF90      		pop r15
 1414 05a8 EF90      		pop r14
 1415               	.LVL97:
 1416 05aa 0895      		ret
 1417               	.LFE39:
 1419               	.global	debug_tx_parameter_hex_nl
 1421               	debug_tx_parameter_hex_nl:
 1422               	.LFB40:
 1423               	.LM234:
 1424               	.LVL98:
 1425 05ac EF92      		push r14
 1426 05ae FF92      		push r15
 1427 05b0 0F93      		push r16
 1428 05b2 1F93      		push r17
 1429               	/* prologue: function */
 1430               	/* frame size = 0 */
 1431 05b4 7A01      		movw r14,r20
 1432 05b6 8B01      		movw r16,r22
 1433               	.LM235:
 1434 05b8 0E94 0000 		call debug_tx_text
 1435               	.LVL99:
 1436               	.LM236:
 1437 05bc 0E94 0000 		call debug_tx_sp
 1438               	.LM237:
 1439 05c0 C801      		movw r24,r16
 1440 05c2 B701      		movw r22,r14
 1441 05c4 0E94 0000 		call debug_tx_number_hex_nl
 1442               	/* epilogue start */
 1443               	.LM238:
 1444 05c8 1F91      		pop r17
 1445 05ca 0F91      		pop r16
 1446 05cc FF90      		pop r15
 1447 05ce EF90      		pop r14
 1448               	.LVL100:
 1449 05d0 0895      		ret
 1450               	.LFE40:
 1452               	.global	debug_tx_parameter_hex_sp
 1454               	debug_tx_parameter_hex_sp:
 1455               	.LFB41:
 1456               	.LM239:
 1457               	.LVL101:
 1458 05d2 EF92      		push r14
 1459 05d4 FF92      		push r15
 1460 05d6 0F93      		push r16
 1461 05d8 1F93      		push r17
 1462               	/* prologue: function */
 1463               	/* frame size = 0 */
 1464 05da 7A01      		movw r14,r20
 1465 05dc 8B01      		movw r16,r22
 1466               	.LM240:
 1467 05de 0E94 0000 		call debug_tx_text
 1468               	.LVL102:
 1469               	.LM241:
 1470 05e2 0E94 0000 		call debug_tx_sp
 1471               	.LM242:
 1472 05e6 C801      		movw r24,r16
 1473 05e8 B701      		movw r22,r14
 1474 05ea 0E94 0000 		call debug_tx_number_hex_sp
 1475               	/* epilogue start */
 1476               	.LM243:
 1477 05ee 1F91      		pop r17
 1478 05f0 0F91      		pop r16
 1479 05f2 FF90      		pop r15
 1480 05f4 EF90      		pop r14
 1481               	.LVL103:
 1482 05f6 0895      		ret
 1483               	.LFE41:
 1485               	.global	Debug_tx_parameter_hex_cm
 1487               	Debug_tx_parameter_hex_cm:
 1488               	.LFB42:
 1489               	.LM244:
 1490               	.LVL104:
 1491 05f8 EF92      		push r14
 1492 05fa FF92      		push r15
 1493 05fc 0F93      		push r16
 1494 05fe 1F93      		push r17
 1495               	/* prologue: function */
 1496               	/* frame size = 0 */
 1497 0600 7A01      		movw r14,r20
 1498 0602 8B01      		movw r16,r22
 1499               	.LM245:
 1500 0604 0E94 0000 		call debug_tx_text
 1501               	.LVL105:
 1502               	.LM246:
 1503 0608 0E94 0000 		call debug_tx_sp
 1504               	.LM247:
 1505 060c C801      		movw r24,r16
 1506 060e B701      		movw r22,r14
 1507 0610 0E94 0000 		call debug_tx_number_hex_cm
 1508               	/* epilogue start */
 1509               	.LM248:
 1510 0614 1F91      		pop r17
 1511 0616 0F91      		pop r16
 1512 0618 FF90      		pop r15
 1513 061a EF90      		pop r14
 1514               	.LVL106:
 1515 061c 0895      		ret
 1516               	.LFE42:
 1518               	.global	debug_buf_get
 1520               	debug_buf_get:
 1521               	.LFB43:
 1522               	.LM249:
 1523               	.LVL107:
 1524               	/* prologue: function */
 1525               	/* frame size = 0 */
 1526               	.LM250:
 1527 061e E0E0      		ldi r30,lo8(debug)
 1528 0620 F0E0      		ldi r31,hi8(debug)
 1529 0622 E80F      		add r30,r24
 1530 0624 F11D      		adc r31,__zero_reg__
 1531 0626 8381      		ldd r24,Z+3
 1532               	.LVL108:
 1533               	/* epilogue start */
 1534               	.LM251:
 1535 0628 0895      		ret
 1536               	.LFE43:
 1538               	.global	debug_buf_index_get
 1540               	debug_buf_index_get:
 1541               	.LFB44:
 1542               	.LM252:
 1543               	/* prologue: function */
 1544               	/* frame size = 0 */
 1545               	.LM253:
 1546 062a 8091 0000 		lds r24,debug+35
 1547               	/* epilogue start */
 1548               	.LM254:
 1549 062e 0895      		ret
 1550               	.LFE44:
 1552               	.global	debug_flush_buf
 1554               	debug_flush_buf:
 1555               	.LFB45:
 1556               	.LM255:
 1557               	/* prologue: function */
 1558               	/* frame size = 0 */
 1559               	.LM256:
 1560 0630 80E0      		ldi r24,lo8(0)
 1561 0632 90E0      		ldi r25,hi8(0)
 1562               	.L141:
 1563               	.LBB74:
 1564               	.LM257:
 1565 0634 FC01      		movw r30,r24
 1566 0636 E050      		subi r30,lo8(-(debug))
 1567 0638 F040      		sbci r31,hi8(-(debug))
 1568 063a 1382      		std Z+3,__zero_reg__
 1569 063c 0196      		adiw r24,1
 1570               	.LM258:
 1571 063e 8032      		cpi r24,32
 1572 0640 9105      		cpc r25,__zero_reg__
 1573 0642 01F4      		brne .L141
 1574               	.LBE74:
 1575               	.LM259:
 1576 0644 1092 0000 		sts debug+35,__zero_reg__
 1577               	/* epilogue start */
 1578               	.LM260:
 1579 0648 0895      		ret
 1580               	.LFE45:
 1582               	.global	debug_databsy_get
 1584               	debug_databsy_get:
 1585               	.LFB46:
 1586               	.LM261:
 1587               	/* prologue: function */
 1588               	/* frame size = 0 */
 1589               	.LM262:
 1590 064a 8091 0000 		lds r24,debug+2
 1591               	/* epilogue start */
 1592               	.LM263:
 1593 064e 0895      		ret
 1594               	.LFE46:
 1596               	.global	debug_init
 1598               	debug_init:
 1599               	.LFB47:
 1600               	.LM264:
 1601               	/* prologue: function */
 1602               	/* frame size = 0 */
 1603               	.LM265:
 1604 0650 0E94 0000 		call debug_struct_init
 1605               	.LM266:
 1606 0654 0E94 0000 		call debug_timings_init
 1607               	.LM267:
 1608 0658 0E94 0000 		call debug_gpio_init
 1609               	/* epilogue start */
 1610               	.LM268:
 1611 065c 0895      		ret
 1612               	.LFE47:
 1614               	.global	__vector_4
 1616               	__vector_4:
 1617               	.LFB48:
 1618               	.LM269:
 1619 065e 1F92      		push __zero_reg__
 1620 0660 0F92      		push r0
 1621 0662 0FB6      		in r0,__SREG__
 1622 0664 0F92      		push r0
 1623 0666 1124      		clr __zero_reg__
 1624 0668 2F93      		push r18
 1625 066a 3F93      		push r19
 1626 066c 4F93      		push r20
 1627 066e 5F93      		push r21
 1628 0670 6F93      		push r22
 1629 0672 7F93      		push r23
 1630 0674 8F93      		push r24
 1631 0676 9F93      		push r25
 1632 0678 AF93      		push r26
 1633 067a BF93      		push r27
 1634 067c EF93      		push r30
 1635 067e FF93      		push r31
 1636               	/* prologue: Signal */
 1637               	/* frame size = 0 */
 1638               	.LM270:
 1639 0680 81E0      		ldi r24,lo8(1)
 1640 0682 8093 0000 		sts debug+2,r24
 1641               	.LM271:
 1642 0686 0E94 0000 		call debug_rx_byte
 1643 068a 982F      		mov r25,r24
 1644               	.LVL109:
 1645               	.LM272:
 1646 068c 8091 0000 		lds r24,debug
 1647 0690 8823      		tst r24
 1648 0692 01F4      		brne .L151
 1649               	.LM273:
 1650 0694 E091 0000 		lds r30,debug+35
 1651 0698 F0E0      		ldi r31,lo8(0)
 1652 069a E050      		subi r30,lo8(-(debug))
 1653 069c F040      		sbci r31,hi8(-(debug))
 1654 069e 9383      		std Z+3,r25
 1655               	.LM274:
 1656 06a0 8091 0000 		lds r24,debug+35
 1657 06a4 8F5F      		subi r24,lo8(-(1))
 1658 06a6 8093 0000 		sts debug+35,r24
 1659               	.LM275:
 1660 06aa 8091 0000 		lds r24,debug+35
 1661 06ae 8132      		cpi r24,lo8(33)
 1662 06b0 00F0      		brlo .L150
 1663               	.LM276:
 1664 06b2 1092 0000 		sts debug+35,__zero_reg__
 1665               	.L150:
 1666               	.LM277:
 1667 06b6 1092 8000 		sts 128,__zero_reg__
 1668               	.LM278:
 1669 06ba 1092 8100 		sts 129,__zero_reg__
 1670               	.LM279:
 1671 06be 1092 8200 		sts 130,__zero_reg__
 1672               	.LM280:
 1673 06c2 8FEF      		ldi r24,lo8(-1)
 1674 06c4 86BB      		out 54-32,r24
 1675               	.LM281:
 1676 06c6 1092 6F00 		sts 111,__zero_reg__
 1677               	.LM282:
 1678 06ca 88E0      		ldi r24,lo8(-12536)
 1679 06cc 9FEC      		ldi r25,hi8(-12536)
 1680 06ce 9093 8500 		sts (132)+1,r25
 1681 06d2 8093 8400 		sts 132,r24
 1682               	.LM283:
 1683 06d6 81E0      		ldi r24,lo8(1)
 1684 06d8 8093 8100 		sts 129,r24
 1685               	.LM284:
 1686 06dc 86BB      		out 54-32,r24
 1687               	.LM285:
 1688 06de 8093 6F00 		sts 111,r24
 1689               	.L151:
 1690               	/* epilogue start */
 1691               	.LM286:
 1692 06e2 FF91      		pop r31
 1693 06e4 EF91      		pop r30
 1694 06e6 BF91      		pop r27
 1695 06e8 AF91      		pop r26
 1696 06ea 9F91      		pop r25
 1697               	.LVL110:
 1698 06ec 8F91      		pop r24
 1699 06ee 7F91      		pop r23
 1700 06f0 6F91      		pop r22
 1701 06f2 5F91      		pop r21
 1702 06f4 4F91      		pop r20
 1703 06f6 3F91      		pop r19
 1704 06f8 2F91      		pop r18
 1705 06fa 0F90      		pop r0
 1706 06fc 0FBE      		out __SREG__,r0
 1707 06fe 0F90      		pop r0
 1708 0700 1F90      		pop __zero_reg__
 1709 0702 1895      		reti
 1710               	.LFE48:
 1712               	.global	__vector_13
 1714               	__vector_13:
 1715               	.LFB49:
 1716               	.LM287:
 1717 0704 1F92      		push __zero_reg__
 1718 0706 0F92      		push r0
 1719 0708 0FB6      		in r0,__SREG__
 1720 070a 0F92      		push r0
 1721 070c 1124      		clr __zero_reg__
 1722               	/* prologue: Signal */
 1723               	/* frame size = 0 */
 1724               	.LM288:
 1725 070e 1092 6F00 		sts 111,__zero_reg__
 1726               	.LM289:
 1727 0712 1092 8100 		sts 129,__zero_reg__
 1728               	.LM290:
 1729 0716 1092 8500 		sts (132)+1,__zero_reg__
 1730 071a 1092 8400 		sts 132,__zero_reg__
 1731               	.LM291:
 1732 071e 1092 0000 		sts debug+2,__zero_reg__
 1733               	/* epilogue start */
 1734               	.LM292:
 1735 0722 0F90      		pop r0
 1736 0724 0FBE      		out __SREG__,r0
 1737 0726 0F90      		pop r0
 1738 0728 1F90      		pop __zero_reg__
 1739 072a 1895      		reti
 1740               	.LFE49:
 1742               	.global	BAUD_9600
 1743               		.data
 1746               	BAUD_9600:
 1747 0002 CE04      		.word	1230
 1748 0004 9C04      		.word	1180
 1749 0006 4E02      		.word	590
 1750               	.global	BAUD_19200
 1753               	BAUD_19200:
 1754 0008 4E02      		.word	590
 1755 000a 3A02      		.word	570
 1756 000c E600      		.word	230
 1757               	.global	BAUD_38400
 1760               	BAUD_38400:
 1761 000e 1801      		.word	280
 1762 0010 0E01      		.word	270
 1763 0012 4600      		.word	70
 1764               		.comm debug,45,1
 2133               	.Letext0:
DEFINED SYMBOLS
                            *ABS*:00000000 debug.c
C:\Users\FARIDU~1\AppData\Local\Temp/ccJEn1fl.s:2      *ABS*:0000003f __SREG__
C:\Users\FARIDU~1\AppData\Local\Temp/ccJEn1fl.s:3      *ABS*:0000003e __SP_H__
C:\Users\FARIDU~1\AppData\Local\Temp/ccJEn1fl.s:4      *ABS*:0000003d __SP_L__
C:\Users\FARIDU~1\AppData\Local\Temp/ccJEn1fl.s:5      *ABS*:00000034 __CCP__
C:\Users\FARIDU~1\AppData\Local\Temp/ccJEn1fl.s:6      *ABS*:00000000 __tmp_reg__
C:\Users\FARIDU~1\AppData\Local\Temp/ccJEn1fl.s:7      *ABS*:00000001 __zero_reg__
C:\Users\FARIDU~1\AppData\Local\Temp/ccJEn1fl.s:18     .text:00000000 debug_struct_init
                            *COM*:0000002d debug
C:\Users\FARIDU~1\AppData\Local\Temp/ccJEn1fl.s:68     .text:00000038 debug_timings_init
C:\Users\FARIDU~1\AppData\Local\Temp/ccJEn1fl.s:111    .text:00000066 debug_gpio_init
C:\Users\FARIDU~1\AppData\Local\Temp/ccJEn1fl.s:131    .text:00000070 debug_tx_high
C:\Users\FARIDU~1\AppData\Local\Temp/ccJEn1fl.s:145    .text:00000074 debug_tx_low
C:\Users\FARIDU~1\AppData\Local\Temp/ccJEn1fl.s:159    .text:00000078 debug_tx_set
C:\Users\FARIDU~1\AppData\Local\Temp/ccJEn1fl.s:187    .text:00000084 debug_rx_get
C:\Users\FARIDU~1\AppData\Local\Temp/ccJEn1fl.s:208    .text:00000096 debug_delay
C:\Users\FARIDU~1\AppData\Local\Temp/ccJEn1fl.s:238    .text:000000ba debug_tx_byte
C:\Users\FARIDU~1\AppData\Local\Temp/ccJEn1fl.s:1760   .data:0000000e BAUD_38400
C:\Users\FARIDU~1\AppData\Local\Temp/ccJEn1fl.s:393    .text:00000170 debug_rx_byte
C:\Users\FARIDU~1\AppData\Local\Temp/ccJEn1fl.s:578    .text:00000246 debug_rx_byte_get
C:\Users\FARIDU~1\AppData\Local\Temp/ccJEn1fl.s:592    .text:0000024c debug_rx_byte_clear
C:\Users\FARIDU~1\AppData\Local\Temp/ccJEn1fl.s:606    .text:00000252 debug_rx_byte_set
C:\Users\FARIDU~1\AppData\Local\Temp/ccJEn1fl.s:621    .text:00000258 debug_tx_hex
C:\Users\FARIDU~1\AppData\Local\Temp/ccJEn1fl.s:762    .text:0000030c debug_tx_bin
C:\Users\FARIDU~1\AppData\Local\Temp/ccJEn1fl.s:882    .text:000003b8 debug_tx_nl
C:\Users\FARIDU~1\AppData\Local\Temp/ccJEn1fl.s:900    .text:000003c6 debug_tx_sp
C:\Users\FARIDU~1\AppData\Local\Temp/ccJEn1fl.s:915    .text:000003ce debug_tx_cm
C:\Users\FARIDU~1\AppData\Local\Temp/ccJEn1fl.s:930    .text:000003d6 debug_tx_text
C:\Users\FARIDU~1\AppData\Local\Temp/ccJEn1fl.s:971    .text:000003fc debug_tx_text_nl
C:\Users\FARIDU~1\AppData\Local\Temp/ccJEn1fl.s:989    .text:00000406 debug_tx_text_sp
C:\Users\FARIDU~1\AppData\Local\Temp/ccJEn1fl.s:1007   .text:00000410 debug_tx_text_cm
C:\Users\FARIDU~1\AppData\Local\Temp/ccJEn1fl.s:1025   .text:0000041a debug_determine_digit_numbers
C:\Users\FARIDU~1\AppData\Local\Temp/ccJEn1fl.s:1115   .text:00000498 debug_tx_number_digits
C:\Users\FARIDU~1\AppData\Local\Temp/ccJEn1fl.s:1158   .text:000004ba debug_tx_number
C:\Users\FARIDU~1\AppData\Local\Temp/ccJEn1fl.s:1206   .text:000004f6 debug_tx_number_nl
C:\Users\FARIDU~1\AppData\Local\Temp/ccJEn1fl.s:1224   .text:00000500 debug_tx_number_sp
C:\Users\FARIDU~1\AppData\Local\Temp/ccJEn1fl.s:1246   .text:0000050a debug_tx_number_cm
C:\Users\FARIDU~1\AppData\Local\Temp/ccJEn1fl.s:1266   .text:00000518 debug_tx_number_hex_nl
C:\Users\FARIDU~1\AppData\Local\Temp/ccJEn1fl.s:1284   .text:00000522 debug_tx_number_hex_sp
C:\Users\FARIDU~1\AppData\Local\Temp/ccJEn1fl.s:1302   .text:0000052c debug_tx_number_hex_cm
C:\Users\FARIDU~1\AppData\Local\Temp/ccJEn1fl.s:1322   .text:0000053a debug_tx_parameter_nl
C:\Users\FARIDU~1\AppData\Local\Temp/ccJEn1fl.s:1355   .text:00000560 debug_tx_parameter_sp
C:\Users\FARIDU~1\AppData\Local\Temp/ccJEn1fl.s:1388   .text:00000586 debug_tx_parameter_cm
C:\Users\FARIDU~1\AppData\Local\Temp/ccJEn1fl.s:1421   .text:000005ac debug_tx_parameter_hex_nl
C:\Users\FARIDU~1\AppData\Local\Temp/ccJEn1fl.s:1454   .text:000005d2 debug_tx_parameter_hex_sp
C:\Users\FARIDU~1\AppData\Local\Temp/ccJEn1fl.s:1487   .text:000005f8 Debug_tx_parameter_hex_cm
C:\Users\FARIDU~1\AppData\Local\Temp/ccJEn1fl.s:1520   .text:0000061e debug_buf_get
C:\Users\FARIDU~1\AppData\Local\Temp/ccJEn1fl.s:1540   .text:0000062a debug_buf_index_get
C:\Users\FARIDU~1\AppData\Local\Temp/ccJEn1fl.s:1554   .text:00000630 debug_flush_buf
C:\Users\FARIDU~1\AppData\Local\Temp/ccJEn1fl.s:1584   .text:0000064a debug_databsy_get
C:\Users\FARIDU~1\AppData\Local\Temp/ccJEn1fl.s:1598   .text:00000650 debug_init
C:\Users\FARIDU~1\AppData\Local\Temp/ccJEn1fl.s:1616   .text:0000065e __vector_4
C:\Users\FARIDU~1\AppData\Local\Temp/ccJEn1fl.s:1714   .text:00000704 __vector_13
C:\Users\FARIDU~1\AppData\Local\Temp/ccJEn1fl.s:1746   .data:00000002 BAUD_9600
C:\Users\FARIDU~1\AppData\Local\Temp/ccJEn1fl.s:1753   .data:00000008 BAUD_19200

UNDEFINED SYMBOLS
__udivmodsi4
__do_copy_data
__do_clear_bss
