   1               		.file	"debug.c"
   2               	__SREG__ = 0x3f
   3               	__SP_H__ = 0x3e
   4               	__SP_L__ = 0x3d
   5               	__CCP__  = 0x34
   6               	__tmp_reg__ = 0
   7               	__zero_reg__ = 1
  15               	.Ltext0:
  16               	.global	debug_struct_init
  18               	debug_struct_init:
  19               	.LFB6:
  20               	.LM1:
  21               	/* prologue: function */
  22               	/* frame size = 0 */
  23               	.LM2:
  24 0000 1092 0000 		sts debug,__zero_reg__
  25               	.LM3:
  26 0004 1092 0000 		sts debug+1,__zero_reg__
  27               	.LM4:
  28 0008 81E0      		ldi r24,lo8(1)
  29 000a 8093 0000 		sts debug+2,r24
  30 000e 80E0      		ldi r24,lo8(0)
  31 0010 90E0      		ldi r25,hi8(0)
  32               	.L2:
  33               	.LBB54:
  34               	.LM5:
  35 0012 FC01      		movw r30,r24
  36 0014 E050      		subi r30,lo8(-(debug))
  37 0016 F040      		sbci r31,hi8(-(debug))
  38 0018 1382      		std Z+3,__zero_reg__
  39 001a 0196      		adiw r24,1
  40               	.LM6:
  41 001c 8032      		cpi r24,32
  42 001e 9105      		cpc r25,__zero_reg__
  43 0020 01F4      		brne .L2
  44               	.LBE54:
  45               	.LM7:
  46 0022 1092 0000 		sts debug+35,__zero_reg__
  47 0026 E0E0      		ldi r30,lo8(debug+36)
  48 0028 F0E0      		ldi r31,hi8(debug+36)
  49               	.L3:
  50               	.LBB55:
  51               	.LM8:
  52 002a 1192      		st Z+,__zero_reg__
  53               	.LM9:
  54 002c 80E0      		ldi r24,hi8(debug+44)
  55 002e E030      		cpi r30,lo8(debug+44)
  56 0030 F807      		cpc r31,r24
  57 0032 01F4      		brne .L3
  58               	.LBE55:
  59               	.LM10:
  60 0034 1082      		st Z,__zero_reg__
  61               	/* epilogue start */
  62               	.LM11:
  63 0036 0895      		ret
  64               	.LFE6:
  66               	.global	debug_timings_init
  68               	debug_timings_init:
  69               	.LFB7:
  70               	.LM12:
  71               	/* prologue: function */
  72               	/* frame size = 0 */
  73               	.LM13:
  74 0038 1092 8000 		sts 128,__zero_reg__
  75               	.LM14:
  76 003c 1092 8100 		sts 129,__zero_reg__
  77               	.LM15:
  78 0040 1092 8200 		sts 130,__zero_reg__
  79               	.LM16:
  80 0044 1092 6F00 		sts 111,__zero_reg__
  81               	.LM17:
  82 0048 8FEF      		ldi r24,lo8(-1)
  83 004a 86BB      		out 54-32,r24
  84               	.LM18:
  85 004c E8E6      		ldi r30,lo8(104)
  86 004e F0E0      		ldi r31,hi8(104)
  87 0050 8081      		ld r24,Z
  88 0052 8460      		ori r24,lo8(4)
  89 0054 8083      		st Z,r24
  90               	.LM19:
  91 0056 EDE6      		ldi r30,lo8(109)
  92 0058 F0E0      		ldi r31,hi8(109)
  93 005a 8081      		ld r24,Z
  94 005c 8062      		ori r24,lo8(32)
  95 005e 8083      		st Z,r24
  96               	.LM20:
  97 0060 DA9A      		sbi 59-32,2
  98               	.LM21:
  99               	/* #APP */
 100               	 ;  98 "debug.c" 1
 101 0062 7894      		sei
 102               	 ;  0 "" 2
 103               	/* epilogue start */
 104               	.LM22:
 105               	/* #NOAPP */
 106 0064 0895      		ret
 107               	.LFE7:
 109               	.global	debug_timer_start
 111               	debug_timer_start:
 112               	.LFB8:
 113               	.LM23:
 114               	/* prologue: function */
 115               	/* frame size = 0 */
 116               	.LM24:
 117 0066 8FEF      		ldi r24,lo8(-1)
 118 0068 86BB      		out 54-32,r24
 119               	.LM25:
 120 006a EFE6      		ldi r30,lo8(111)
 121 006c F0E0      		ldi r31,hi8(111)
 122 006e 1082      		st Z,__zero_reg__
 123               	.LM26:
 124 0070 88E0      		ldi r24,lo8(-12536)
 125 0072 9FEC      		ldi r25,hi8(-12536)
 126 0074 9093 8500 		sts (132)+1,r25
 127 0078 8093 8400 		sts 132,r24
 128               	.LM27:
 129 007c 81E0      		ldi r24,lo8(1)
 130 007e 8093 8100 		sts 129,r24
 131               	.LM28:
 132 0082 86BB      		out 54-32,r24
 133               	.LM29:
 134 0084 8083      		st Z,r24
 135               	/* epilogue start */
 136               	.LM30:
 137 0086 0895      		ret
 138               	.LFE8:
 140               	.global	debug_timer_stop
 142               	debug_timer_stop:
 143               	.LFB9:
 144               	.LM31:
 145               	/* prologue: function */
 146               	/* frame size = 0 */
 147               	.LM32:
 148 0088 1092 6F00 		sts 111,__zero_reg__
 149               	.LM33:
 150 008c 1092 8100 		sts 129,__zero_reg__
 151               	.LM34:
 152 0090 1092 8500 		sts (132)+1,__zero_reg__
 153 0094 1092 8400 		sts 132,__zero_reg__
 154               	/* epilogue start */
 155               	.LM35:
 156 0098 0895      		ret
 157               	.LFE9:
 159               	.global	debug_gpio_init
 161               	debug_gpio_init:
 162               	.LFB10:
 163               	.LM36:
 164               	/* prologue: function */
 165               	/* frame size = 0 */
 166               	.LM37:
 167 009a 569A      		sbi 42-32,6
 168               	.LM38:
 169 009c 5E9A      		sbi 43-32,6
 170               	.LM39:
 171 009e 5598      		cbi 42-32,5
 172               	.LM40:
 173 00a0 5D9A      		sbi 43-32,5
 174               	.LM41:
 175 00a2 519A      		sbi 42-32,1
 176               	.LM42:
 177 00a4 5998      		cbi 43-32,1
 178               	/* epilogue start */
 179               	.LM43:
 180 00a6 0895      		ret
 181               	.LFE10:
 183               	.global	debug_tx_high
 185               	debug_tx_high:
 186               	.LFB11:
 187               	.LM44:
 188               	/* prologue: function */
 189               	/* frame size = 0 */
 190               	.LM45:
 191 00a8 5E9A      		sbi 43-32,6
 192               	/* epilogue start */
 193               	.LM46:
 194 00aa 0895      		ret
 195               	.LFE11:
 197               	.global	debug_tx_low
 199               	debug_tx_low:
 200               	.LFB12:
 201               	.LM47:
 202               	/* prologue: function */
 203               	/* frame size = 0 */
 204               	.LM48:
 205 00ac 5E98      		cbi 43-32,6
 206               	/* epilogue start */
 207               	.LM49:
 208 00ae 0895      		ret
 209               	.LFE12:
 211               	.global	debug_tx_set
 213               	debug_tx_set:
 214               	.LFB13:
 215               	.LM50:
 216               	.LVL0:
 217               	/* prologue: function */
 218               	/* frame size = 0 */
 219               	.LM51:
 220 00b0 8130      		cpi r24,lo8(1)
 221 00b2 01F4      		brne .L20
 222               	.LBB56:
 223               	.LBB57:
 224               	.LM52:
 225 00b4 5E9A      		sbi 43-32,6
 226 00b6 0895      		ret
 227               	.L20:
 228               	.LBE57:
 229               	.LBE56:
 230               	.LBB58:
 231               	.LBB59:
 232               	.LM53:
 233 00b8 5E98      		cbi 43-32,6
 234 00ba 0895      		ret
 235               	.LBE59:
 236               	.LBE58:
 237               	.LFE13:
 239               	.global	debug_rx_get
 241               	debug_rx_get:
 242               	.LFB14:
 243               	.LM54:
 244               	/* prologue: function */
 245               	/* frame size = 0 */
 246               	.LM55:
 247 00bc 89B1      		in r24,41-32
 248 00be 90E0      		ldi r25,lo8(0)
 249 00c0 25E0      		ldi r18,5
 250 00c2 9695      	1:	lsr r25
 251 00c4 8795      		ror r24
 252 00c6 2A95      		dec r18
 253 00c8 01F4      		brne 1b
 254               	.LM56:
 255 00ca 8170      		andi r24,lo8(1)
 256               	/* epilogue start */
 257 00cc 0895      		ret
 258               	.LFE14:
 260               	.global	debug_delay
 262               	debug_delay:
 263               	.LFB15:
 264               	.LM57:
 265               	.LVL1:
 266               	/* prologue: function */
 267               	/* frame size = 0 */
 268 00ce 9C01      		movw r18,r24
 269               	.LM58:
 270 00d0 1092 8500 		sts (132)+1,__zero_reg__
 271 00d4 1092 8400 		sts 132,__zero_reg__
 272               	.LM59:
 273 00d8 81E0      		ldi r24,lo8(1)
 274               	.LVL2:
 275 00da 8093 8100 		sts 129,r24
 276               	.L26:
 277               	.LM60:
 278 00de 8091 8400 		lds r24,132
 279 00e2 9091 8500 		lds r25,(132)+1
 280 00e6 8217      		cp r24,r18
 281 00e8 9307      		cpc r25,r19
 282 00ea 00F0      		brlo .L26
 283               	.LM61:
 284 00ec 1092 8100 		sts 129,__zero_reg__
 285               	/* epilogue start */
 286               	.LM62:
 287 00f0 0895      		ret
 288               	.LFE15:
 290               	.global	debug_delay_index_0
 292               	debug_delay_index_0:
 293               	.LFB16:
 294               	.LM63:
 295               	/* prologue: function */
 296               	/* frame size = 0 */
 297               	.LM64:
 298 00f2 2091 0000 		lds r18,TIM1_BAUD_38400
 299 00f6 3091 0000 		lds r19,(TIM1_BAUD_38400)+1
 300               	.LBB60:
 301               	.LBB61:
 302               	.LM65:
 303 00fa 1092 8500 		sts (132)+1,__zero_reg__
 304 00fe 1092 8400 		sts 132,__zero_reg__
 305               	.LM66:
 306 0102 81E0      		ldi r24,lo8(1)
 307 0104 8093 8100 		sts 129,r24
 308               	.L30:
 309               	.LM67:
 310 0108 8091 8400 		lds r24,132
 311 010c 9091 8500 		lds r25,(132)+1
 312 0110 8217      		cp r24,r18
 313 0112 9307      		cpc r25,r19
 314 0114 00F0      		brlo .L30
 315               	.LM68:
 316 0116 1092 8100 		sts 129,__zero_reg__
 317               	/* epilogue start */
 318               	.LBE61:
 319               	.LBE60:
 320               	.LM69:
 321 011a 0895      		ret
 322               	.LFE16:
 324               	.global	debug_delay_index_1
 326               	debug_delay_index_1:
 327               	.LFB17:
 328               	.LM70:
 329               	/* prologue: function */
 330               	/* frame size = 0 */
 331               	.LM71:
 332 011c 2091 0000 		lds r18,TIM1_BAUD_38400+2
 333 0120 3091 0000 		lds r19,(TIM1_BAUD_38400+2)+1
 334               	.LBB62:
 335               	.LBB63:
 336               	.LM72:
 337 0124 1092 8500 		sts (132)+1,__zero_reg__
 338 0128 1092 8400 		sts 132,__zero_reg__
 339               	.LM73:
 340 012c 81E0      		ldi r24,lo8(1)
 341 012e 8093 8100 		sts 129,r24
 342               	.L34:
 343               	.LM74:
 344 0132 8091 8400 		lds r24,132
 345 0136 9091 8500 		lds r25,(132)+1
 346 013a 8217      		cp r24,r18
 347 013c 9307      		cpc r25,r19
 348 013e 00F0      		brlo .L34
 349               	.LM75:
 350 0140 1092 8100 		sts 129,__zero_reg__
 351               	/* epilogue start */
 352               	.LBE63:
 353               	.LBE62:
 354               	.LM76:
 355 0144 0895      		ret
 356               	.LFE17:
 358               	.global	debug_delay_index_2
 360               	debug_delay_index_2:
 361               	.LFB18:
 362               	.LM77:
 363               	/* prologue: function */
 364               	/* frame size = 0 */
 365               	.LM78:
 366 0146 2091 0000 		lds r18,TIM1_BAUD_38400+4
 367 014a 3091 0000 		lds r19,(TIM1_BAUD_38400+4)+1
 368               	.LBB64:
 369               	.LBB65:
 370               	.LM79:
 371 014e 1092 8500 		sts (132)+1,__zero_reg__
 372 0152 1092 8400 		sts 132,__zero_reg__
 373               	.LM80:
 374 0156 81E0      		ldi r24,lo8(1)
 375 0158 8093 8100 		sts 129,r24
 376               	.L38:
 377               	.LM81:
 378 015c 8091 8400 		lds r24,132
 379 0160 9091 8500 		lds r25,(132)+1
 380 0164 8217      		cp r24,r18
 381 0166 9307      		cpc r25,r19
 382 0168 00F0      		brlo .L38
 383               	.LM82:
 384 016a 1092 8100 		sts 129,__zero_reg__
 385               	/* epilogue start */
 386               	.LBE65:
 387               	.LBE64:
 388               	.LM83:
 389 016e 0895      		ret
 390               	.LFE18:
 392               	.global	debug_tx_byte
 394               	debug_tx_byte:
 395               	.LFB19:
 396               	.LM84:
 397               	.LVL3:
 398 0170 DF93      		push r29
 399 0172 CF93      		push r28
 400 0174 CDB7      		in r28,__SP_L__
 401 0176 DEB7      		in r29,__SP_H__
 402 0178 2A97      		sbiw r28,10
 403 017a 0FB6      		in __tmp_reg__,__SREG__
 404 017c F894      		cli
 405 017e DEBF      		out __SP_H__,r29
 406 0180 0FBE      		out __SREG__,__tmp_reg__
 407 0182 CDBF      		out __SP_L__,r28
 408               	/* prologue: function */
 409               	/* frame size = 10 */
 410               	.LM85:
 411 0184 FE01      		movw r30,r28
 412 0186 3196      		adiw r30,1
 413 0188 9AE0      		ldi r25,lo8(10)
 414 018a DF01      		movw r26,r30
 415 018c 1D92      		st X+,__zero_reg__
 416 018e 9A95      	        dec r25
 417 0190 01F4      		brne .-6
 418 0192 91E0      		ldi r25,lo8(1)
 419 0194 9A87      		std Y+10,r25
 420 0196 FE01      		movw r30,r28
 421 0198 3296      		adiw r30,2
 422 019a 20E0      		ldi r18,lo8(0)
 423 019c 30E0      		ldi r19,hi8(0)
 424               	.LBB66:
 425               	.LM86:
 426 019e 482F      		mov r20,r24
 427 01a0 50E0      		ldi r21,lo8(0)
 428               	.LVL4:
 429               	.LM87:
 430 01a2 61E0      		ldi r22,lo8(1)
 431               	.LVL5:
 432               	.L44:
 433               	.LM88:
 434 01a4 CA01      		movw r24,r20
 435 01a6 022E      		mov r0,r18
 436 01a8 00C0      		rjmp 2f
 437 01aa 9595      	1:	asr r25
 438 01ac 8795      		ror r24
 439 01ae 0A94      	2:	dec r0
 440 01b0 02F4      		brpl 1b
 441 01b2 80FF      		sbrs r24,0
 442 01b4 00C0      		rjmp .L42
 443               	.LM89:
 444 01b6 6083      		st Z,r22
 445 01b8 00C0      		rjmp .L43
 446               	.L42:
 447               	.LM90:
 448 01ba 1082      		st Z,__zero_reg__
 449               	.L43:
 450 01bc 2F5F      		subi r18,lo8(-(1))
 451 01be 3F4F      		sbci r19,hi8(-(1))
 452 01c0 3196      		adiw r30,1
 453               	.LM91:
 454 01c2 2830      		cpi r18,8
 455 01c4 3105      		cpc r19,__zero_reg__
 456 01c6 01F4      		brne .L44
 457               	.LBE66:
 458               	.LM92:
 459 01c8 6FB7      		in r22,__SREG__
 460               	.LVL6:
 461               	.LM93:
 462               	/* #APP */
 463               	 ;  375 "debug.c" 1
 464 01ca F894      		cli
 465               	 ;  0 "" 2
 466               	/* #NOAPP */
 467               	.LBB67:
 468               	.LBB68:
 469               	.LBB69:
 470               	.LM94:
 471 01cc 2091 0000 		lds r18,TIM1_BAUD_38400
 472 01d0 3091 0000 		lds r19,(TIM1_BAUD_38400)+1
 473 01d4 FE01      		movw r30,r28
 474 01d6 3196      		adiw r30,1
 475               	.LBB70:
 476               	.LBB71:
 477               	.LM95:
 478 01d8 71E0      		ldi r23,lo8(1)
 479               	.LBE71:
 480               	.LBE70:
 481               	.LBE69:
 482               	.LBE68:
 483               	.LM96:
 484 01da AE01      		movw r20,r28
 485               	.LVL7:
 486 01dc 455F      		subi r20,lo8(-(11))
 487 01de 5F4F      		sbci r21,hi8(-(11))
 488               	.L48:
 489               	.LBB75:
 490               	.LBB76:
 491               	.LM97:
 492 01e0 8081      		ld r24,Z
 493 01e2 8130      		cpi r24,lo8(1)
 494 01e4 01F4      		brne .L45
 495               	.LBB77:
 496               	.LBB78:
 497               	.LM98:
 498 01e6 5E9A      		sbi 43-32,6
 499 01e8 00C0      		rjmp .L46
 500               	.L45:
 501               	.LBE78:
 502               	.LBE77:
 503               	.LBB79:
 504               	.LBB80:
 505               	.LM99:
 506 01ea 5E98      		cbi 43-32,6
 507               	.L46:
 508               	.LBE80:
 509               	.LBE79:
 510               	.LBE76:
 511               	.LBE75:
 512               	.LBB81:
 513               	.LBB74:
 514               	.LBB73:
 515               	.LBB72:
 516               	.LM100:
 517 01ec 1092 8500 		sts (132)+1,__zero_reg__
 518 01f0 1092 8400 		sts 132,__zero_reg__
 519               	.LM101:
 520 01f4 7093 8100 		sts 129,r23
 521               	.L47:
 522               	.LM102:
 523 01f8 8091 8400 		lds r24,132
 524 01fc 9091 8500 		lds r25,(132)+1
 525 0200 8217      		cp r24,r18
 526 0202 9307      		cpc r25,r19
 527 0204 00F0      		brlo .L47
 528               	.LM103:
 529 0206 1092 8100 		sts 129,__zero_reg__
 530 020a 3196      		adiw r30,1
 531               	.LBE72:
 532               	.LBE73:
 533               	.LBE74:
 534               	.LBE81:
 535               	.LM104:
 536 020c E417      		cp r30,r20
 537 020e F507      		cpc r31,r21
 538 0210 01F4      		brne .L48
 539               	.LBE67:
 540               	.LM105:
 541 0212 6FBF      		out __SREG__,r22
 542               	/* epilogue start */
 543               	.LM106:
 544 0214 2A96      		adiw r28,10
 545 0216 0FB6      		in __tmp_reg__,__SREG__
 546 0218 F894      		cli
 547 021a DEBF      		out __SP_H__,r29
 548 021c 0FBE      		out __SREG__,__tmp_reg__
 549 021e CDBF      		out __SP_L__,r28
 550 0220 CF91      		pop r28
 551 0222 DF91      		pop r29
 552 0224 0895      		ret
 553               	.LFE19:
 555               	.global	debug_rx_byte
 557               	debug_rx_byte:
 558               	.LFB20:
 559               	.LM107:
 560               	/* prologue: function */
 561               	/* frame size = 0 */
 562               	.LBB82:
 563               	.LBB83:
 564               	.LM108:
 565 0226 4D9B      		sbis 41-32,5
 566 0228 00C0      		rjmp .L54
 567               	.LBE83:
 568               	.LBE82:
 569               	.LM109:
 570 022a 82E0      		ldi r24,lo8(2)
 571 022c 8093 0000 		sts debug,r24
 572 0230 00C0      		rjmp .L55
 573               	.L56:
 574               	.LBB84:
 575               	.LBB100:
 576               	.LBB101:
 577               	.LBB102:
 578               	.LBB103:
 579               	.LM110:
 580 0232 8091 8400 		lds r24,132
 581 0236 9091 8500 		lds r25,(132)+1
 582 023a 8217      		cp r24,r18
 583 023c 9307      		cpc r25,r19
 584 023e 00F0      		brlo .L56
 585               	.LM111:
 586 0240 1092 8100 		sts 129,__zero_reg__
 587               	.LBE103:
 588               	.LBE102:
 589               	.LBE101:
 590               	.LBE100:
 591               	.LM112:
 592 0244 599A      		sbi 43-32,1
 593               	.LM113:
 594 0246 5998      		cbi 43-32,1
 595               	.LBB98:
 596               	.LBB99:
 597               	.LM114:
 598 0248 69B1      		in r22,41-32
 599               	.LBE99:
 600               	.LBE98:
 601               	.LBB91:
 602               	.LBB92:
 603               	.LBB93:
 604               	.LM115:
 605 024a 4091 0000 		lds r20,TIM1_BAUD_38400+2
 606 024e 5091 0000 		lds r21,(TIM1_BAUD_38400+2)+1
 607 0252 30E0      		ldi r19,lo8(0)
 608               	.LVL8:
 609 0254 20E0      		ldi r18,lo8(0)
 610               	.LVL9:
 611               	.LBB94:
 612               	.LBB95:
 613               	.LM116:
 614 0256 71E0      		ldi r23,lo8(1)
 615               	.L60:
 616               	.LM117:
 617 0258 1092 8500 		sts (132)+1,__zero_reg__
 618 025c 1092 8400 		sts 132,__zero_reg__
 619               	.LM118:
 620 0260 7093 8100 		sts 129,r23
 621               	.L57:
 622               	.LM119:
 623 0264 8091 8400 		lds r24,132
 624 0268 9091 8500 		lds r25,(132)+1
 625 026c 8417      		cp r24,r20
 626 026e 9507      		cpc r25,r21
 627 0270 00F0      		brlo .L57
 628               	.LM120:
 629 0272 1092 8100 		sts 129,__zero_reg__
 630               	.LBE95:
 631               	.LBE94:
 632               	.LBE93:
 633               	.LBE92:
 634               	.LM121:
 635 0276 599A      		sbi 43-32,1
 636               	.LM122:
 637 0278 5998      		cbi 43-32,1
 638               	.LBB96:
 639               	.LBB97:
 640               	.LM123:
 641 027a 4D99      		sbic 41-32,5
 642               	.LBE97:
 643               	.LBE96:
 644               	.LM124:
 645 027c 3068      		ori r19,lo8(-128)
 646               	.L58:
 647               	.LM125:
 648 027e 2730      		cpi r18,lo8(7)
 649 0280 01F0      		breq .L59
 650               	.LM126:
 651 0282 3695      		lsr r19
 652               	.L59:
 653               	.LM127:
 654 0284 2F5F      		subi r18,lo8(-(1))
 655 0286 2830      		cpi r18,lo8(8)
 656 0288 01F4      		brne .L60
 657               	.LBE91:
 658               	.LBB87:
 659               	.LBB88:
 660               	.LBB89:
 661               	.LBB90:
 662               	.LM128:
 663 028a 1092 8500 		sts (132)+1,__zero_reg__
 664 028e 1092 8400 		sts 132,__zero_reg__
 665               	.LM129:
 666 0292 81E0      		ldi r24,lo8(1)
 667 0294 8093 8100 		sts 129,r24
 668               	.L61:
 669               	.LM130:
 670 0298 8091 8400 		lds r24,132
 671 029c 9091 8500 		lds r25,(132)+1
 672 02a0 8417      		cp r24,r20
 673 02a2 9507      		cpc r25,r21
 674 02a4 00F0      		brlo .L61
 675               	.LM131:
 676 02a6 1092 8100 		sts 129,__zero_reg__
 677               	.LBE90:
 678               	.LBE89:
 679               	.LBE88:
 680               	.LBE87:
 681               	.LM132:
 682 02aa 599A      		sbi 43-32,1
 683               	.LM133:
 684 02ac 5998      		cbi 43-32,1
 685               	.LBB85:
 686               	.LBB86:
 687               	.LM134:
 688 02ae 89B1      		in r24,41-32
 689               	.LBE86:
 690               	.LBE85:
 691               	.LM135:
 692 02b0 65FD      		sbrc r22,5
 693 02b2 00C0      		rjmp .L62
 694 02b4 85FF      		sbrs r24,5
 695 02b6 00C0      		rjmp .L62
 696               	.LM136:
 697 02b8 3093 0000 		sts debug+1,r19
 698               	.LM137:
 699 02bc 1092 0000 		sts debug,__zero_reg__
 700 02c0 00C0      		rjmp .L63
 701               	.L62:
 702               	.LM138:
 703 02c2 81E0      		ldi r24,lo8(1)
 704 02c4 8093 0000 		sts debug,r24
 705               	.L63:
 706               	.LM139:
 707 02c8 599A      		sbi 43-32,1
 708               	.LM140:
 709 02ca 5998      		cbi 43-32,1
 710               	.L55:
 711               	.LBE84:
 712               	.LM141:
 713 02cc 8091 0000 		lds r24,debug+1
 714               	/* epilogue start */
 715               	.LM142:
 716 02d0 0895      		ret
 717               	.LVL10:
 718               	.L54:
 719               	.LBB108:
 720               	.LBB107:
 721               	.LBB106:
 722               	.LM143:
 723 02d2 2091 0000 		lds r18,TIM1_BAUD_38400+4
 724 02d6 3091 0000 		lds r19,(TIM1_BAUD_38400+4)+1
 725               	.LBB105:
 726               	.LBB104:
 727               	.LM144:
 728 02da 1092 8500 		sts (132)+1,__zero_reg__
 729 02de 1092 8400 		sts 132,__zero_reg__
 730               	.LM145:
 731 02e2 81E0      		ldi r24,lo8(1)
 732 02e4 8093 8100 		sts 129,r24
 733 02e8 00C0      		rjmp .L56
 734               	.LBE104:
 735               	.LBE105:
 736               	.LBE106:
 737               	.LBE107:
 738               	.LBE108:
 739               	.LFE20:
 741               	.global	debug_rx_byte_get
 743               	debug_rx_byte_get:
 744               	.LFB21:
 745               	.LM146:
 746               	/* prologue: function */
 747               	/* frame size = 0 */
 748               	.LM147:
 749 02ea 8091 0000 		lds r24,debug+1
 750               	/* epilogue start */
 751               	.LM148:
 752 02ee 0895      		ret
 753               	.LFE21:
 755               	.global	debug_rx_byte_clear
 757               	debug_rx_byte_clear:
 758               	.LFB22:
 759               	.LM149:
 760               	/* prologue: function */
 761               	/* frame size = 0 */
 762               	.LM150:
 763 02f0 1092 0000 		sts debug+1,__zero_reg__
 764               	/* epilogue start */
 765               	.LM151:
 766 02f4 0895      		ret
 767               	.LFE22:
 769               	.global	debug_rx_byte_set
 771               	debug_rx_byte_set:
 772               	.LFB23:
 773               	.LM152:
 774               	.LVL11:
 775               	/* prologue: function */
 776               	/* frame size = 0 */
 777               	.LM153:
 778 02f6 8093 0000 		sts debug+1,r24
 779               	/* epilogue start */
 780               	.LM154:
 781 02fa 0895      		ret
 782               	.LFE23:
 784               	.global	debug_tx_hex
 786               	debug_tx_hex:
 787               	.LFB24:
 788               	.LM155:
 789               	.LVL12:
 790 02fc BF92      		push r11
 791 02fe CF92      		push r12
 792 0300 DF92      		push r13
 793 0302 EF92      		push r14
 794 0304 FF92      		push r15
 795 0306 0F93      		push r16
 796 0308 1F93      		push r17
 797 030a CF93      		push r28
 798 030c DF93      		push r29
 799               	/* prologue: function */
 800               	/* frame size = 0 */
 801 030e 7B01      		movw r14,r22
 802 0310 8C01      		movw r16,r24
 803               	.LM156:
 804 0312 8FEF      		ldi r24,lo8(255)
 805 0314 E816      		cp r14,r24
 806 0316 F104      		cpc r15,__zero_reg__
 807 0318 0105      		cpc r16,__zero_reg__
 808 031a 1105      		cpc r17,__zero_reg__
 809 031c 01F0      		breq .+2
 810 031e 00F4      		brsh .L76
 811               	.LVL13:
 812 0320 C8E0      		ldi r28,lo8(8)
 813 0322 D0E0      		ldi r29,hi8(8)
 814               	.LVL14:
 815 0324 52E0      		ldi r21,lo8(2)
 816 0326 C52E      		mov r12,r21
 817 0328 D12C      		mov r13,__zero_reg__
 818               	.LVL15:
 819 032a 00C0      		rjmp .L77
 820               	.LVL16:
 821               	.L76:
 822               	.LM157:
 823 032c 80E0      		ldi r24,lo8(65536)
 824 032e E816      		cp r14,r24
 825 0330 80E0      		ldi r24,hi8(65536)
 826 0332 F806      		cpc r15,r24
 827 0334 81E0      		ldi r24,hlo8(65536)
 828 0336 0807      		cpc r16,r24
 829 0338 80E0      		ldi r24,hhi8(65536)
 830 033a 1807      		cpc r17,r24
 831 033c 00F0      		brlo .L78
 832 033e C0E2      		ldi r28,lo8(32)
 833 0340 D0E0      		ldi r29,hi8(32)
 834               	.LVL17:
 835 0342 48E0      		ldi r20,lo8(8)
 836 0344 C42E      		mov r12,r20
 837 0346 D12C      		mov r13,__zero_reg__
 838               	.LVL18:
 839 0348 00C0      		rjmp .L77
 840               	.LVL19:
 841               	.L78:
 842 034a C0E1      		ldi r28,lo8(16)
 843 034c D0E0      		ldi r29,hi8(16)
 844               	.LVL20:
 845 034e 34E0      		ldi r19,lo8(4)
 846 0350 C32E      		mov r12,r19
 847 0352 D12C      		mov r13,__zero_reg__
 848               	.LVL21:
 849               	.L77:
 850               	.LM158:
 851 0354 80E3      		ldi r24,lo8(48)
 852 0356 0E94 0000 		call debug_tx_byte
 853               	.LM159:
 854 035a 88E7      		ldi r24,lo8(120)
 855 035c 0E94 0000 		call debug_tx_byte
 856 0360 BB24      		clr r11
 857               	.LVL22:
 858 0362 00C0      		rjmp .L79
 859               	.LVL23:
 860               	.L82:
 861               	.LBB109:
 862               	.LM160:
 863 0364 2497      		sbiw r28,4
 864               	.LM161:
 865 0366 D801      		movw r26,r16
 866 0368 C701      		movw r24,r14
 867               	.LVL24:
 868 036a 0C2E      		mov r0,r28
 869 036c 00C0      		rjmp 2f
 870 036e B695      	1:	lsr r27
 871 0370 A795      		ror r26
 872 0372 9795      		ror r25
 873 0374 8795      		ror r24
 874 0376 0A94      	2:	dec r0
 875 0378 02F4      		brpl 1b
 876 037a 90E0      		ldi r25,lo8(0)
 877               	.LVL25:
 878 037c 8F70      		andi r24,lo8(15)
 879 037e 9070      		andi r25,hi8(15)
 880               	.LVL26:
 881               	.LM162:
 882 0380 8A30      		cpi r24,10
 883 0382 9105      		cpc r25,__zero_reg__
 884 0384 00F0      		brlo .L80
 885               	.LM163:
 886 0386 C796      		adiw r24,55
 887               	.LVL27:
 888 0388 00C0      		rjmp .L81
 889               	.L80:
 890               	.LM164:
 891 038a C096      		adiw r24,48
 892               	.LVL28:
 893               	.L81:
 894               	.LM165:
 895 038c 0E94 0000 		call debug_tx_byte
 896               	.LVL29:
 897               	.LM166:
 898 0390 B394      		inc r11
 899               	.L79:
 900 0392 8B2D      		mov r24,r11
 901 0394 90E0      		ldi r25,lo8(0)
 902               	.LVL30:
 903 0396 8C15      		cp r24,r12
 904 0398 9D05      		cpc r25,r13
 905 039a 00F0      		brlo .L82
 906               	.LVL31:
 907               	/* epilogue start */
 908               	.LBE109:
 909               	.LM167:
 910 039c DF91      		pop r29
 911 039e CF91      		pop r28
 912               	.LVL32:
 913 03a0 1F91      		pop r17
 914 03a2 0F91      		pop r16
 915 03a4 FF90      		pop r15
 916 03a6 EF90      		pop r14
 917               	.LVL33:
 918 03a8 DF90      		pop r13
 919 03aa CF90      		pop r12
 920               	.LVL34:
 921 03ac BF90      		pop r11
 922 03ae 0895      		ret
 923               	.LFE24:
 925               	.global	debug_tx_bin
 927               	debug_tx_bin:
 928               	.LFB25:
 929               	.LM168:
 930               	.LVL35:
 931 03b0 AF92      		push r10
 932 03b2 BF92      		push r11
 933 03b4 CF92      		push r12
 934 03b6 DF92      		push r13
 935 03b8 EF92      		push r14
 936 03ba FF92      		push r15
 937 03bc 0F93      		push r16
 938 03be 1F93      		push r17
 939 03c0 CF93      		push r28
 940 03c2 DF93      		push r29
 941               	/* prologue: function */
 942               	/* frame size = 0 */
 943 03c4 7B01      		movw r14,r22
 944 03c6 8C01      		movw r16,r24
 945               	.LM169:
 946 03c8 6F3F      		cpi r22,lo8(255)
 947 03ca 7105      		cpc r23,__zero_reg__
 948 03cc 8105      		cpc r24,__zero_reg__
 949 03ce 9105      		cpc r25,__zero_reg__
 950 03d0 01F0      		breq .+2
 951 03d2 00F4      		brsh .L85
 952 03d4 E7E0      		ldi r30,lo8(7)
 953 03d6 DE2E      		mov r13,r30
 954               	.LVL36:
 955 03d8 00C0      		rjmp .L86
 956               	.LVL37:
 957               	.L85:
 958               	.LM170:
 959 03da 6030      		cpi r22,lo8(65536)
 960 03dc 30E0      		ldi r19,hi8(65536)
 961 03de 7307      		cpc r23,r19
 962 03e0 31E0      		ldi r19,hlo8(65536)
 963 03e2 8307      		cpc r24,r19
 964 03e4 30E0      		ldi r19,hhi8(65536)
 965 03e6 9307      		cpc r25,r19
 966 03e8 00F0      		brlo .L87
 967 03ea 7FE1      		ldi r23,lo8(31)
 968 03ec D72E      		mov r13,r23
 969               	.LVL38:
 970 03ee 00C0      		rjmp .L86
 971               	.LVL39:
 972               	.L87:
 973 03f0 6FE0      		ldi r22,lo8(15)
 974 03f2 D62E      		mov r13,r22
 975               	.LVL40:
 976               	.L86:
 977               	.LM171:
 978 03f4 80E3      		ldi r24,lo8(48)
 979 03f6 0E94 0000 		call debug_tx_byte
 980               	.LM172:
 981 03fa 82E6      		ldi r24,lo8(98)
 982 03fc 0E94 0000 		call debug_tx_byte
 983 0400 C0E0      		ldi r28,lo8(0)
 984 0402 D0E0      		ldi r29,hi8(0)
 985               	.LM173:
 986 0404 CD2C      		mov r12,r13
 987 0406 DD24      		clr r13
 988               	.LVL41:
 989               	.LBB110:
 990               	.LM174:
 991 0408 5601      		movw r10,r12
 992 040a 0894      		sec
 993 040c A11C      		adc r10,__zero_reg__
 994 040e B11C      		adc r11,__zero_reg__
 995               	.L90:
 996               	.LM175:
 997 0410 C601      		movw r24,r12
 998 0412 8C1B      		sub r24,r28
 999 0414 9D0B      		sbc r25,r29
 1000 0416 A801      		movw r20,r16
 1001 0418 9701      		movw r18,r14
 1002 041a 00C0      		rjmp 2f
 1003 041c 5695      	1:	lsr r21
 1004 041e 4795      		ror r20
 1005 0420 3795      		ror r19
 1006 0422 2795      		ror r18
 1007 0424 8A95      	2:	dec r24
 1008 0426 02F4      		brpl 1b
 1009 0428 DA01      		movw r26,r20
 1010 042a C901      		movw r24,r18
 1011 042c 8170      		andi r24,lo8(1)
 1012 042e 9070      		andi r25,hi8(1)
 1013 0430 892B      		or r24,r25
 1014 0432 01F0      		breq .L88
 1015               	.LM176:
 1016 0434 81E3      		ldi r24,lo8(49)
 1017 0436 00C0      		rjmp .L93
 1018               	.L88:
 1019               	.LM177:
 1020 0438 80E3      		ldi r24,lo8(48)
 1021               	.L93:
 1022 043a 0E94 0000 		call debug_tx_byte
 1023 043e 2196      		adiw r28,1
 1024               	.LM178:
 1025 0440 CA15      		cp r28,r10
 1026 0442 DB05      		cpc r29,r11
 1027 0444 01F4      		brne .L90
 1028               	/* epilogue start */
 1029               	.LBE110:
 1030               	.LM179:
 1031 0446 DF91      		pop r29
 1032 0448 CF91      		pop r28
 1033 044a 1F91      		pop r17
 1034 044c 0F91      		pop r16
 1035 044e FF90      		pop r15
 1036 0450 EF90      		pop r14
 1037               	.LVL42:
 1038 0452 DF90      		pop r13
 1039 0454 CF90      		pop r12
 1040 0456 BF90      		pop r11
 1041 0458 AF90      		pop r10
 1042 045a 0895      		ret
 1043               	.LFE25:
 1045               	.global	debug_tx_nl
 1047               	debug_tx_nl:
 1048               	.LFB26:
 1049               	.LM180:
 1050               	/* prologue: function */
 1051               	/* frame size = 0 */
 1052               	.LM181:
 1053 045c 8DE0      		ldi r24,lo8(13)
 1054 045e 0E94 0000 		call debug_tx_byte
 1055               	.LM182:
 1056 0462 8AE0      		ldi r24,lo8(10)
 1057 0464 0E94 0000 		call debug_tx_byte
 1058               	/* epilogue start */
 1059               	.LM183:
 1060 0468 0895      		ret
 1061               	.LFE26:
 1063               	.global	debug_tx_sp
 1065               	debug_tx_sp:
 1066               	.LFB27:
 1067               	.LM184:
 1068               	/* prologue: function */
 1069               	/* frame size = 0 */
 1070               	.LM185:
 1071 046a 80E2      		ldi r24,lo8(32)
 1072 046c 0E94 0000 		call debug_tx_byte
 1073               	/* epilogue start */
 1074               	.LM186:
 1075 0470 0895      		ret
 1076               	.LFE27:
 1078               	.global	debug_tx_cm
 1080               	debug_tx_cm:
 1081               	.LFB28:
 1082               	.LM187:
 1083               	/* prologue: function */
 1084               	/* frame size = 0 */
 1085               	.LM188:
 1086 0472 8CE2      		ldi r24,lo8(44)
 1087 0474 0E94 0000 		call debug_tx_byte
 1088               	/* epilogue start */
 1089               	.LM189:
 1090 0478 0895      		ret
 1091               	.LFE28:
 1093               	.global	debug_tx_text
 1095               	debug_tx_text:
 1096               	.LFB29:
 1097               	.LM190:
 1098               	.LVL43:
 1099 047a 1F93      		push r17
 1100 047c CF93      		push r28
 1101 047e DF93      		push r29
 1102               	/* prologue: function */
 1103               	/* frame size = 0 */
 1104 0480 EC01      		movw r28,r24
 1105               	.LM191:
 1106 0482 10E0      		ldi r17,lo8(0)
 1107               	.LVL44:
 1108 0484 00C0      		rjmp .L101
 1109               	.LVL45:
 1110               	.L102:
 1111               	.LM192:
 1112 0486 0E94 0000 		call debug_tx_byte
 1113               	.LM193:
 1114 048a 1F5F      		subi r17,lo8(-(1))
 1115               	.LVL46:
 1116               	.L101:
 1117               	.LM194:
 1118 048c FE01      		movw r30,r28
 1119 048e E10F      		add r30,r17
 1120 0490 F11D      		adc r31,__zero_reg__
 1121 0492 8081      		ld r24,Z
 1122 0494 8823      		tst r24
 1123 0496 01F4      		brne .L102
 1124               	/* epilogue start */
 1125               	.LM195:
 1126 0498 DF91      		pop r29
 1127 049a CF91      		pop r28
 1128               	.LVL47:
 1129 049c 1F91      		pop r17
 1130               	.LVL48:
 1131 049e 0895      		ret
 1132               	.LFE29:
 1134               	.global	debug_tx_text_nl
 1136               	debug_tx_text_nl:
 1137               	.LFB30:
 1138               	.LM196:
 1139               	.LVL49:
 1140               	/* prologue: function */
 1141               	/* frame size = 0 */
 1142               	.LM197:
 1143 04a0 0E94 0000 		call debug_tx_text
 1144               	.LVL50:
 1145               	.LM198:
 1146 04a4 0E94 0000 		call debug_tx_nl
 1147               	/* epilogue start */
 1148               	.LM199:
 1149 04a8 0895      		ret
 1150               	.LFE30:
 1152               	.global	debug_tx_text_sp
 1154               	debug_tx_text_sp:
 1155               	.LFB31:
 1156               	.LM200:
 1157               	.LVL51:
 1158               	/* prologue: function */
 1159               	/* frame size = 0 */
 1160               	.LM201:
 1161 04aa 0E94 0000 		call debug_tx_text
 1162               	.LVL52:
 1163               	.LM202:
 1164 04ae 0E94 0000 		call debug_tx_sp
 1165               	/* epilogue start */
 1166               	.LM203:
 1167 04b2 0895      		ret
 1168               	.LFE31:
 1170               	.global	debug_tx_text_cm
 1172               	debug_tx_text_cm:
 1173               	.LFB32:
 1174               	.LM204:
 1175               	.LVL53:
 1176               	/* prologue: function */
 1177               	/* frame size = 0 */
 1178               	.LM205:
 1179 04b4 0E94 0000 		call debug_tx_text
 1180               	.LVL54:
 1181               	.LM206:
 1182 04b8 0E94 0000 		call debug_tx_cm
 1183               	/* epilogue start */
 1184               	.LM207:
 1185 04bc 0895      		ret
 1186               	.LFE32:
 1188               	.global	debug_determine_digit_numbers
 1190               	debug_determine_digit_numbers:
 1191               	.LFB33:
 1192               	.LM208:
 1193               	.LVL55:
 1194 04be BF92      		push r11
 1195 04c0 CF92      		push r12
 1196 04c2 DF92      		push r13
 1197 04c4 EF92      		push r14
 1198 04c6 FF92      		push r15
 1199 04c8 0F93      		push r16
 1200 04ca 1F93      		push r17
 1201               	/* prologue: function */
 1202               	/* frame size = 0 */
 1203 04cc 6B01      		movw r12,r22
 1204 04ce 7C01      		movw r14,r24
 1205               	.LM209:
 1206 04d0 6115      		cp r22,__zero_reg__
 1207 04d2 7105      		cpc r23,__zero_reg__
 1208 04d4 8105      		cpc r24,__zero_reg__
 1209 04d6 9105      		cpc r25,__zero_reg__
 1210 04d8 01F4      		brne .L111
 1211               	.LM210:
 1212 04da 1092 0000 		sts debug+36,__zero_reg__
 1213               	.LM211:
 1214 04de 81E0      		ldi r24,lo8(1)
 1215 04e0 8093 0000 		sts debug+44,r24
 1216 04e4 00C0      		rjmp .L114
 1217               	.L111:
 1218 04e6 BB24      		clr r11
 1219               	.LVL56:
 1220               	.L113:
 1221               	.LM212:
 1222 04e8 0B2D      		mov r16,r11
 1223 04ea 10E0      		ldi r17,lo8(0)
 1224               	.LVL57:
 1225 04ec 0050      		subi r16,lo8(-(debug))
 1226 04ee 1040      		sbci r17,hi8(-(debug))
 1227               	.LVL58:
 1228 04f0 C701      		movw r24,r14
 1229 04f2 B601      		movw r22,r12
 1230               	.LVL59:
 1231 04f4 2AE0      		ldi r18,lo8(10)
 1232 04f6 30E0      		ldi r19,hi8(10)
 1233 04f8 40E0      		ldi r20,hlo8(10)
 1234 04fa 50E0      		ldi r21,hhi8(10)
 1235 04fc 0E94 0000 		call __udivmodsi4
 1236 0500 F801      		movw r30,r16
 1237 0502 64A3      		std Z+36,r22
 1238               	.LM213:
 1239 0504 C701      		movw r24,r14
 1240 0506 B601      		movw r22,r12
 1241 0508 2AE0      		ldi r18,lo8(10)
 1242 050a 30E0      		ldi r19,hi8(10)
 1243 050c 40E0      		ldi r20,hlo8(10)
 1244 050e 50E0      		ldi r21,hhi8(10)
 1245 0510 0E94 0000 		call __udivmodsi4
 1246 0514 C901      		movw r24,r18
 1247 0516 DA01      		movw r26,r20
 1248 0518 6C01      		movw r12,r24
 1249 051a 7D01      		movw r14,r26
 1250               	.LM214:
 1251 051c B394      		inc r11
 1252               	.LVL60:
 1253               	.LM215:
 1254 051e C114      		cp r12,__zero_reg__
 1255 0520 D104      		cpc r13,__zero_reg__
 1256 0522 E104      		cpc r14,__zero_reg__
 1257 0524 F104      		cpc r15,__zero_reg__
 1258 0526 01F4      		brne .L113
 1259               	.LM216:
 1260 0528 B092 0000 		sts debug+44,r11
 1261               	.LVL61:
 1262               	.L114:
 1263               	/* epilogue start */
 1264               	.LM217:
 1265 052c 1F91      		pop r17
 1266               	.LVL62:
 1267 052e 0F91      		pop r16
 1268 0530 FF90      		pop r15
 1269 0532 EF90      		pop r14
 1270 0534 DF90      		pop r13
 1271 0536 CF90      		pop r12
 1272               	.LVL63:
 1273 0538 BF90      		pop r11
 1274               	.LVL64:
 1275 053a 0895      		ret
 1276               	.LFE33:
 1278               	.global	debug_tx_number_digits
 1280               	debug_tx_number_digits:
 1281               	.LFB34:
 1282               	.LM218:
 1283 053c 1F93      		push r17
 1284               	/* prologue: function */
 1285               	/* frame size = 0 */
 1286               	.LBB111:
 1287               	.LM219:
 1288 053e 1091 0000 		lds r17,debug+44
 1289               	.LVL65:
 1290 0542 00C0      		rjmp .L117
 1291               	.L118:
 1292               	.LBB112:
 1293               	.LM220:
 1294 0544 1150      		subi r17,lo8(-(-1))
 1295               	.LVL66:
 1296               	.LM221:
 1297 0546 E12F      		mov r30,r17
 1298 0548 F0E0      		ldi r31,lo8(0)
 1299 054a E050      		subi r30,lo8(-(debug))
 1300 054c F040      		sbci r31,hi8(-(debug))
 1301 054e 84A1      		ldd r24,Z+36
 1302               	.LVL67:
 1303               	.LM222:
 1304 0550 805D      		subi r24,lo8(-(48))
 1305               	.LVL68:
 1306 0552 0E94 0000 		call debug_tx_byte
 1307               	.LVL69:
 1308               	.L117:
 1309               	.LBE112:
 1310               	.LM223:
 1311 0556 1123      		tst r17
 1312 0558 01F4      		brne .L118
 1313               	/* epilogue start */
 1314               	.LBE111:
 1315               	.LM224:
 1316 055a 1F91      		pop r17
 1317               	.LVL70:
 1318 055c 0895      		ret
 1319               	.LFE34:
 1321               	.global	debug_tx_number
 1323               	debug_tx_number:
 1324               	.LFB35:
 1325               	.LM225:
 1326               	.LVL71:
 1327 055e EF92      		push r14
 1328 0560 FF92      		push r15
 1329 0562 0F93      		push r16
 1330 0564 1F93      		push r17
 1331               	/* prologue: function */
 1332               	/* frame size = 0 */
 1333 0566 7B01      		movw r14,r22
 1334 0568 8C01      		movw r16,r24
 1335               	.LM226:
 1336 056a 97FF      		sbrs r25,7
 1337 056c 00C0      		rjmp .L121
 1338               	.LM227:
 1339 056e 8DE2      		ldi r24,lo8(45)
 1340 0570 0E94 0000 		call debug_tx_byte
 1341               	.LVL72:
 1342               	.LM228:
 1343 0574 1095      		com r17
 1344 0576 0095      		com r16
 1345 0578 F094      		com r15
 1346 057a E094      		com r14
 1347 057c E11C      		adc r14,__zero_reg__
 1348 057e F11C      		adc r15,__zero_reg__
 1349 0580 011D      		adc r16,__zero_reg__
 1350 0582 111D      		adc r17,__zero_reg__
 1351               	.LVL73:
 1352               	.L121:
 1353               	.LM229:
 1354 0584 C801      		movw r24,r16
 1355 0586 B701      		movw r22,r14
 1356 0588 0E94 0000 		call debug_determine_digit_numbers
 1357               	.LM230:
 1358 058c 0E94 0000 		call debug_tx_number_digits
 1359               	/* epilogue start */
 1360               	.LM231:
 1361 0590 1F91      		pop r17
 1362 0592 0F91      		pop r16
 1363 0594 FF90      		pop r15
 1364 0596 EF90      		pop r14
 1365               	.LVL74:
 1366 0598 0895      		ret
 1367               	.LFE35:
 1369               	.global	debug_tx_number_nl
 1371               	debug_tx_number_nl:
 1372               	.LFB36:
 1373               	.LM232:
 1374               	.LVL75:
 1375               	/* prologue: function */
 1376               	/* frame size = 0 */
 1377               	.LM233:
 1378 059a 0E94 0000 		call debug_tx_number
 1379               	.LVL76:
 1380               	.LM234:
 1381 059e 0E94 0000 		call debug_tx_nl
 1382               	/* epilogue start */
 1383               	.LM235:
 1384 05a2 0895      		ret
 1385               	.LFE36:
 1387               	.global	debug_tx_number_sp
 1389               	debug_tx_number_sp:
 1390               	.LFB37:
 1391               	.LM236:
 1392               	.LVL77:
 1393               	/* prologue: function */
 1394               	/* frame size = 0 */
 1395               	.LM237:
 1396 05a4 0E94 0000 		call debug_tx_number
 1397               	.LVL78:
 1398               	.LM238:
 1399 05a8 0E94 0000 		call debug_tx_sp
 1400               	/* epilogue start */
 1401               	.LM239:
 1402 05ac 0895      		ret
 1403               	.LFE37:
 1405               		.data
 1406               	.LC0:
 1407 0000 2C00      		.string	","
 1408               		.text
 1409               	.global	debug_tx_number_cm
 1411               	debug_tx_number_cm:
 1412               	.LFB38:
 1413               	.LM240:
 1414               	.LVL79:
 1415               	/* prologue: function */
 1416               	/* frame size = 0 */
 1417               	.LM241:
 1418 05ae 0E94 0000 		call debug_tx_number
 1419               	.LVL80:
 1420               	.LM242:
 1421 05b2 80E0      		ldi r24,lo8(.LC0)
 1422 05b4 90E0      		ldi r25,hi8(.LC0)
 1423 05b6 0E94 0000 		call debug_tx_text
 1424               	/* epilogue start */
 1425               	.LM243:
 1426 05ba 0895      		ret
 1427               	.LFE38:
 1429               	.global	debug_tx_number_hex_nl
 1431               	debug_tx_number_hex_nl:
 1432               	.LFB39:
 1433               	.LM244:
 1434               	.LVL81:
 1435               	/* prologue: function */
 1436               	/* frame size = 0 */
 1437               	.LM245:
 1438 05bc 0E94 0000 		call debug_tx_hex
 1439               	.LVL82:
 1440               	.LM246:
 1441 05c0 0E94 0000 		call debug_tx_nl
 1442               	/* epilogue start */
 1443               	.LM247:
 1444 05c4 0895      		ret
 1445               	.LFE39:
 1447               	.global	debug_tx_number_hex_sp
 1449               	debug_tx_number_hex_sp:
 1450               	.LFB40:
 1451               	.LM248:
 1452               	.LVL83:
 1453               	/* prologue: function */
 1454               	/* frame size = 0 */
 1455               	.LM249:
 1456 05c6 0E94 0000 		call debug_tx_hex
 1457               	.LVL84:
 1458               	.LM250:
 1459 05ca 0E94 0000 		call debug_tx_sp
 1460               	/* epilogue start */
 1461               	.LM251:
 1462 05ce 0895      		ret
 1463               	.LFE40:
 1465               	.global	debug_tx_number_hex_cm
 1467               	debug_tx_number_hex_cm:
 1468               	.LFB41:
 1469               	.LM252:
 1470               	.LVL85:
 1471               	/* prologue: function */
 1472               	/* frame size = 0 */
 1473               	.LM253:
 1474 05d0 0E94 0000 		call debug_tx_hex
 1475               	.LVL86:
 1476               	.LM254:
 1477 05d4 80E0      		ldi r24,lo8(.LC0)
 1478 05d6 90E0      		ldi r25,hi8(.LC0)
 1479 05d8 0E94 0000 		call debug_tx_text
 1480               	/* epilogue start */
 1481               	.LM255:
 1482 05dc 0895      		ret
 1483               	.LFE41:
 1485               	.global	debug_tx_parameter_nl
 1487               	debug_tx_parameter_nl:
 1488               	.LFB42:
 1489               	.LM256:
 1490               	.LVL87:
 1491 05de EF92      		push r14
 1492 05e0 FF92      		push r15
 1493 05e2 0F93      		push r16
 1494 05e4 1F93      		push r17
 1495               	/* prologue: function */
 1496               	/* frame size = 0 */
 1497 05e6 7A01      		movw r14,r20
 1498 05e8 8B01      		movw r16,r22
 1499               	.LM257:
 1500 05ea 0E94 0000 		call debug_tx_text
 1501               	.LVL88:
 1502               	.LM258:
 1503 05ee 0E94 0000 		call debug_tx_sp
 1504               	.LM259:
 1505 05f2 C801      		movw r24,r16
 1506 05f4 B701      		movw r22,r14
 1507 05f6 0E94 0000 		call debug_tx_number_nl
 1508               	/* epilogue start */
 1509               	.LM260:
 1510 05fa 1F91      		pop r17
 1511 05fc 0F91      		pop r16
 1512 05fe FF90      		pop r15
 1513 0600 EF90      		pop r14
 1514               	.LVL89:
 1515 0602 0895      		ret
 1516               	.LFE42:
 1518               	.global	debug_tx_parameter_sp
 1520               	debug_tx_parameter_sp:
 1521               	.LFB43:
 1522               	.LM261:
 1523               	.LVL90:
 1524 0604 EF92      		push r14
 1525 0606 FF92      		push r15
 1526 0608 0F93      		push r16
 1527 060a 1F93      		push r17
 1528               	/* prologue: function */
 1529               	/* frame size = 0 */
 1530 060c 7A01      		movw r14,r20
 1531 060e 8B01      		movw r16,r22
 1532               	.LM262:
 1533 0610 0E94 0000 		call debug_tx_text
 1534               	.LVL91:
 1535               	.LM263:
 1536 0614 0E94 0000 		call debug_tx_sp
 1537               	.LM264:
 1538 0618 C801      		movw r24,r16
 1539 061a B701      		movw r22,r14
 1540 061c 0E94 0000 		call debug_tx_number_sp
 1541               	/* epilogue start */
 1542               	.LM265:
 1543 0620 1F91      		pop r17
 1544 0622 0F91      		pop r16
 1545 0624 FF90      		pop r15
 1546 0626 EF90      		pop r14
 1547               	.LVL92:
 1548 0628 0895      		ret
 1549               	.LFE43:
 1551               	.global	debug_tx_parameter_cm
 1553               	debug_tx_parameter_cm:
 1554               	.LFB44:
 1555               	.LM266:
 1556               	.LVL93:
 1557 062a EF92      		push r14
 1558 062c FF92      		push r15
 1559 062e 0F93      		push r16
 1560 0630 1F93      		push r17
 1561               	/* prologue: function */
 1562               	/* frame size = 0 */
 1563 0632 7A01      		movw r14,r20
 1564 0634 8B01      		movw r16,r22
 1565               	.LM267:
 1566 0636 0E94 0000 		call debug_tx_text
 1567               	.LVL94:
 1568               	.LM268:
 1569 063a 0E94 0000 		call debug_tx_sp
 1570               	.LM269:
 1571 063e C801      		movw r24,r16
 1572 0640 B701      		movw r22,r14
 1573 0642 0E94 0000 		call debug_tx_number_cm
 1574               	/* epilogue start */
 1575               	.LM270:
 1576 0646 1F91      		pop r17
 1577 0648 0F91      		pop r16
 1578 064a FF90      		pop r15
 1579 064c EF90      		pop r14
 1580               	.LVL95:
 1581 064e 0895      		ret
 1582               	.LFE44:
 1584               	.global	debug_tx_parameter_hex_nl
 1586               	debug_tx_parameter_hex_nl:
 1587               	.LFB45:
 1588               	.LM271:
 1589               	.LVL96:
 1590 0650 EF92      		push r14
 1591 0652 FF92      		push r15
 1592 0654 0F93      		push r16
 1593 0656 1F93      		push r17
 1594               	/* prologue: function */
 1595               	/* frame size = 0 */
 1596 0658 7A01      		movw r14,r20
 1597 065a 8B01      		movw r16,r22
 1598               	.LM272:
 1599 065c 0E94 0000 		call debug_tx_text
 1600               	.LVL97:
 1601               	.LM273:
 1602 0660 0E94 0000 		call debug_tx_sp
 1603               	.LM274:
 1604 0664 C801      		movw r24,r16
 1605 0666 B701      		movw r22,r14
 1606 0668 0E94 0000 		call debug_tx_number_hex_nl
 1607               	/* epilogue start */
 1608               	.LM275:
 1609 066c 1F91      		pop r17
 1610 066e 0F91      		pop r16
 1611 0670 FF90      		pop r15
 1612 0672 EF90      		pop r14
 1613               	.LVL98:
 1614 0674 0895      		ret
 1615               	.LFE45:
 1617               	.global	debug_tx_parameter_hex_sp
 1619               	debug_tx_parameter_hex_sp:
 1620               	.LFB46:
 1621               	.LM276:
 1622               	.LVL99:
 1623 0676 EF92      		push r14
 1624 0678 FF92      		push r15
 1625 067a 0F93      		push r16
 1626 067c 1F93      		push r17
 1627               	/* prologue: function */
 1628               	/* frame size = 0 */
 1629 067e 7A01      		movw r14,r20
 1630 0680 8B01      		movw r16,r22
 1631               	.LM277:
 1632 0682 0E94 0000 		call debug_tx_text
 1633               	.LVL100:
 1634               	.LM278:
 1635 0686 0E94 0000 		call debug_tx_sp
 1636               	.LM279:
 1637 068a C801      		movw r24,r16
 1638 068c B701      		movw r22,r14
 1639 068e 0E94 0000 		call debug_tx_number_hex_sp
 1640               	/* epilogue start */
 1641               	.LM280:
 1642 0692 1F91      		pop r17
 1643 0694 0F91      		pop r16
 1644 0696 FF90      		pop r15
 1645 0698 EF90      		pop r14
 1646               	.LVL101:
 1647 069a 0895      		ret
 1648               	.LFE46:
 1650               	.global	Debug_tx_parameter_hex_cm
 1652               	Debug_tx_parameter_hex_cm:
 1653               	.LFB47:
 1654               	.LM281:
 1655               	.LVL102:
 1656 069c EF92      		push r14
 1657 069e FF92      		push r15
 1658 06a0 0F93      		push r16
 1659 06a2 1F93      		push r17
 1660               	/* prologue: function */
 1661               	/* frame size = 0 */
 1662 06a4 7A01      		movw r14,r20
 1663 06a6 8B01      		movw r16,r22
 1664               	.LM282:
 1665 06a8 0E94 0000 		call debug_tx_text
 1666               	.LVL103:
 1667               	.LM283:
 1668 06ac 0E94 0000 		call debug_tx_sp
 1669               	.LM284:
 1670 06b0 C801      		movw r24,r16
 1671 06b2 B701      		movw r22,r14
 1672 06b4 0E94 0000 		call debug_tx_number_hex_cm
 1673               	/* epilogue start */
 1674               	.LM285:
 1675 06b8 1F91      		pop r17
 1676 06ba 0F91      		pop r16
 1677 06bc FF90      		pop r15
 1678 06be EF90      		pop r14
 1679               	.LVL104:
 1680 06c0 0895      		ret
 1681               	.LFE47:
 1683               	.global	debug_buf_get
 1685               	debug_buf_get:
 1686               	.LFB48:
 1687               	.LM286:
 1688               	.LVL105:
 1689               	/* prologue: function */
 1690               	/* frame size = 0 */
 1691               	.LM287:
 1692 06c2 E0E0      		ldi r30,lo8(debug)
 1693 06c4 F0E0      		ldi r31,hi8(debug)
 1694 06c6 E80F      		add r30,r24
 1695 06c8 F11D      		adc r31,__zero_reg__
 1696 06ca 8381      		ldd r24,Z+3
 1697               	.LVL106:
 1698               	/* epilogue start */
 1699               	.LM288:
 1700 06cc 0895      		ret
 1701               	.LFE48:
 1703               	.global	debug_buf_index_get
 1705               	debug_buf_index_get:
 1706               	.LFB49:
 1707               	.LM289:
 1708               	/* prologue: function */
 1709               	/* frame size = 0 */
 1710               	.LM290:
 1711 06ce 8091 0000 		lds r24,debug+35
 1712               	/* epilogue start */
 1713               	.LM291:
 1714 06d2 0895      		ret
 1715               	.LFE49:
 1717               	.global	debug_flush_buf
 1719               	debug_flush_buf:
 1720               	.LFB50:
 1721               	.LM292:
 1722               	/* prologue: function */
 1723               	/* frame size = 0 */
 1724               	.LM293:
 1725 06d4 80E0      		ldi r24,lo8(0)
 1726 06d6 90E0      		ldi r25,hi8(0)
 1727               	.L152:
 1728               	.LBB113:
 1729               	.LM294:
 1730 06d8 FC01      		movw r30,r24
 1731 06da E050      		subi r30,lo8(-(debug))
 1732 06dc F040      		sbci r31,hi8(-(debug))
 1733 06de 1382      		std Z+3,__zero_reg__
 1734 06e0 0196      		adiw r24,1
 1735               	.LM295:
 1736 06e2 8032      		cpi r24,32
 1737 06e4 9105      		cpc r25,__zero_reg__
 1738 06e6 01F4      		brne .L152
 1739               	.LBE113:
 1740               	.LM296:
 1741 06e8 1092 0000 		sts debug+35,__zero_reg__
 1742               	/* epilogue start */
 1743               	.LM297:
 1744 06ec 0895      		ret
 1745               	.LFE50:
 1747               	.global	debug_databsy_get
 1749               	debug_databsy_get:
 1750               	.LFB51:
 1751               	.LM298:
 1752               	/* prologue: function */
 1753               	/* frame size = 0 */
 1754               	.LM299:
 1755 06ee 8091 0000 		lds r24,debug+2
 1756               	/* epilogue start */
 1757               	.LM300:
 1758 06f2 0895      		ret
 1759               	.LFE51:
 1761               	.global	debug_data_available_rx_buf
 1763               	debug_data_available_rx_buf:
 1764               	.LFB52:
 1765               	.LM301:
 1766               	/* prologue: function */
 1767               	/* frame size = 0 */
 1768               	.LBB114:
 1769               	.LBB115:
 1770               	.LM302:
 1771 06f4 8091 0000 		lds r24,debug+2
 1772               	.LBE115:
 1773               	.LBE114:
 1774               	.LM303:
 1775 06f8 8823      		tst r24
 1776 06fa 01F0      		breq .L158
 1777 06fc 90E0      		ldi r25,lo8(0)
 1778 06fe 00C0      		rjmp .L159
 1779               	.L158:
 1780               	.LBB116:
 1781               	.LBB117:
 1782               	.LM304:
 1783 0700 8091 0000 		lds r24,debug+35
 1784 0704 90E0      		ldi r25,lo8(0)
 1785 0706 8823      		tst r24
 1786 0708 01F4      		brne .L160
 1787 070a 91E0      		ldi r25,lo8(1)
 1788               	.L160:
 1789 070c 81E0      		ldi r24,lo8(1)
 1790 070e 9827      		eor r25,r24
 1791               	.L159:
 1792               	.LBE117:
 1793               	.LBE116:
 1794               	.LM305:
 1795 0710 892F      		mov r24,r25
 1796               	/* epilogue start */
 1797 0712 0895      		ret
 1798               	.LFE52:
 1800               	.global	debug_available_bytes_rx_buf
 1802               	debug_available_bytes_rx_buf:
 1803               	.LFB53:
 1804               	.LM306:
 1805               	/* prologue: function */
 1806               	/* frame size = 0 */
 1807               	.LBB118:
 1808               	.LBB119:
 1809               	.LM307:
 1810 0714 8091 0000 		lds r24,debug+35
 1811               	/* epilogue start */
 1812               	.LBE119:
 1813               	.LBE118:
 1814               	.LM308:
 1815 0718 0895      		ret
 1816               	.LFE53:
 1818               	.global	debug_init
 1820               	debug_init:
 1821               	.LFB54:
 1822               	.LM309:
 1823               	/* prologue: function */
 1824               	/* frame size = 0 */
 1825               	.LM310:
 1826 071a 0E94 0000 		call debug_struct_init
 1827               	.LM311:
 1828 071e 0E94 0000 		call debug_timings_init
 1829               	.LM312:
 1830 0722 0E94 0000 		call debug_gpio_init
 1831               	/* epilogue start */
 1832               	.LM313:
 1833 0726 0895      		ret
 1834               	.LFE54:
 1836               	.global	__vector_5
 1838               	__vector_5:
 1839               	.LFB55:
 1840               	.LM314:
 1841 0728 1F92      		push __zero_reg__
 1842 072a 0F92      		push r0
 1843 072c 0FB6      		in r0,__SREG__
 1844 072e 0F92      		push r0
 1845 0730 1124      		clr __zero_reg__
 1846 0732 2F93      		push r18
 1847 0734 3F93      		push r19
 1848 0736 4F93      		push r20
 1849 0738 5F93      		push r21
 1850 073a 6F93      		push r22
 1851 073c 7F93      		push r23
 1852 073e 8F93      		push r24
 1853 0740 9F93      		push r25
 1854 0742 AF93      		push r26
 1855 0744 BF93      		push r27
 1856 0746 EF93      		push r30
 1857 0748 FF93      		push r31
 1858               	/* prologue: Signal */
 1859               	/* frame size = 0 */
 1860               	.LM315:
 1861 074a 81E0      		ldi r24,lo8(1)
 1862 074c 8093 0000 		sts debug+2,r24
 1863               	.LM316:
 1864 0750 0E94 0000 		call debug_rx_byte
 1865 0754 982F      		mov r25,r24
 1866               	.LVL107:
 1867               	.LM317:
 1868 0756 8091 0000 		lds r24,debug
 1869 075a 8823      		tst r24
 1870 075c 01F4      		brne .L169
 1871               	.LM318:
 1872 075e E091 0000 		lds r30,debug+35
 1873 0762 F0E0      		ldi r31,lo8(0)
 1874 0764 E050      		subi r30,lo8(-(debug))
 1875 0766 F040      		sbci r31,hi8(-(debug))
 1876 0768 9383      		std Z+3,r25
 1877               	.LM319:
 1878 076a 8091 0000 		lds r24,debug+35
 1879 076e 8F5F      		subi r24,lo8(-(1))
 1880 0770 8093 0000 		sts debug+35,r24
 1881               	.LM320:
 1882 0774 8091 0000 		lds r24,debug+35
 1883 0778 8132      		cpi r24,lo8(33)
 1884 077a 00F0      		brlo .L168
 1885               	.LM321:
 1886 077c 1092 0000 		sts debug+35,__zero_reg__
 1887               	.L168:
 1888               	.LM322:
 1889 0780 0E94 0000 		call debug_timer_start
 1890               	.LVL108:
 1891               	.LM323:
 1892 0784 599A      		sbi 43-32,1
 1893               	.LM324:
 1894 0786 5998      		cbi 43-32,1
 1895               	.LVL109:
 1896               	.L169:
 1897               	/* epilogue start */
 1898               	.LM325:
 1899 0788 FF91      		pop r31
 1900 078a EF91      		pop r30
 1901 078c BF91      		pop r27
 1902 078e AF91      		pop r26
 1903 0790 9F91      		pop r25
 1904               	.LVL110:
 1905 0792 8F91      		pop r24
 1906 0794 7F91      		pop r23
 1907 0796 6F91      		pop r22
 1908 0798 5F91      		pop r21
 1909 079a 4F91      		pop r20
 1910 079c 3F91      		pop r19
 1911 079e 2F91      		pop r18
 1912 07a0 0F90      		pop r0
 1913 07a2 0FBE      		out __SREG__,r0
 1914 07a4 0F90      		pop r0
 1915 07a6 1F90      		pop __zero_reg__
 1916 07a8 1895      		reti
 1917               	.LFE55:
 1919               	.global	__vector_13
 1921               	__vector_13:
 1922               	.LFB56:
 1923               	.LM326:
 1924 07aa 1F92      		push __zero_reg__
 1925 07ac 0F92      		push r0
 1926 07ae 0FB6      		in r0,__SREG__
 1927 07b0 0F92      		push r0
 1928 07b2 1124      		clr __zero_reg__
 1929               	/* prologue: Signal */
 1930               	/* frame size = 0 */
 1931               	.LBB120:
 1932               	.LBB121:
 1933               	.LM327:
 1934 07b4 1092 6F00 		sts 111,__zero_reg__
 1935               	.LM328:
 1936 07b8 1092 8100 		sts 129,__zero_reg__
 1937               	.LM329:
 1938 07bc 1092 8500 		sts (132)+1,__zero_reg__
 1939 07c0 1092 8400 		sts 132,__zero_reg__
 1940               	.LBE121:
 1941               	.LBE120:
 1942               	.LM330:
 1943 07c4 599A      		sbi 43-32,1
 1944               	.LM331:
 1945 07c6 5998      		cbi 43-32,1
 1946               	.LM332:
 1947 07c8 1092 0000 		sts debug+2,__zero_reg__
 1948               	/* epilogue start */
 1949               	.LM333:
 1950 07cc 0F90      		pop r0
 1951 07ce 0FBE      		out __SREG__,r0
 1952 07d0 0F90      		pop r0
 1953 07d2 1F90      		pop __zero_reg__
 1954 07d4 1895      		reti
 1955               	.LFE56:
 1957               	.global	TIM1_BAUD_9600
 1958               		.data
 1961               	TIM1_BAUD_9600:
 1962 0002 CE04      		.word	1230
 1963 0004 9C04      		.word	1180
 1964 0006 4E02      		.word	590
 1965               	.global	TIM1_BAUD_19200
 1968               	TIM1_BAUD_19200:
 1969 0008 4E02      		.word	590
 1970 000a 3A02      		.word	570
 1971 000c E600      		.word	230
 1972               	.global	TIM1_BAUD_38400
 1975               	TIM1_BAUD_38400:
 1976 000e 1801      		.word	280
 1977 0010 1801      		.word	280
 1978 0012 4600      		.word	70
 1979               		.comm debug,45,1
 2404               	.Letext0:
DEFINED SYMBOLS
                            *ABS*:00000000 debug.c
C:\Users\farid\AppData\Local\Temp/ccLYUPoY.s:2      *ABS*:0000003f __SREG__
C:\Users\farid\AppData\Local\Temp/ccLYUPoY.s:3      *ABS*:0000003e __SP_H__
C:\Users\farid\AppData\Local\Temp/ccLYUPoY.s:4      *ABS*:0000003d __SP_L__
C:\Users\farid\AppData\Local\Temp/ccLYUPoY.s:5      *ABS*:00000034 __CCP__
C:\Users\farid\AppData\Local\Temp/ccLYUPoY.s:6      *ABS*:00000000 __tmp_reg__
C:\Users\farid\AppData\Local\Temp/ccLYUPoY.s:7      *ABS*:00000001 __zero_reg__
C:\Users\farid\AppData\Local\Temp/ccLYUPoY.s:18     .text:00000000 debug_struct_init
                            *COM*:0000002d debug
C:\Users\farid\AppData\Local\Temp/ccLYUPoY.s:68     .text:00000038 debug_timings_init
C:\Users\farid\AppData\Local\Temp/ccLYUPoY.s:111    .text:00000066 debug_timer_start
C:\Users\farid\AppData\Local\Temp/ccLYUPoY.s:142    .text:00000088 debug_timer_stop
C:\Users\farid\AppData\Local\Temp/ccLYUPoY.s:161    .text:0000009a debug_gpio_init
C:\Users\farid\AppData\Local\Temp/ccLYUPoY.s:185    .text:000000a8 debug_tx_high
C:\Users\farid\AppData\Local\Temp/ccLYUPoY.s:199    .text:000000ac debug_tx_low
C:\Users\farid\AppData\Local\Temp/ccLYUPoY.s:213    .text:000000b0 debug_tx_set
C:\Users\farid\AppData\Local\Temp/ccLYUPoY.s:241    .text:000000bc debug_rx_get
C:\Users\farid\AppData\Local\Temp/ccLYUPoY.s:262    .text:000000ce debug_delay
C:\Users\farid\AppData\Local\Temp/ccLYUPoY.s:292    .text:000000f2 debug_delay_index_0
C:\Users\farid\AppData\Local\Temp/ccLYUPoY.s:1975   .data:0000000e TIM1_BAUD_38400
C:\Users\farid\AppData\Local\Temp/ccLYUPoY.s:326    .text:0000011c debug_delay_index_1
C:\Users\farid\AppData\Local\Temp/ccLYUPoY.s:360    .text:00000146 debug_delay_index_2
C:\Users\farid\AppData\Local\Temp/ccLYUPoY.s:394    .text:00000170 debug_tx_byte
C:\Users\farid\AppData\Local\Temp/ccLYUPoY.s:557    .text:00000226 debug_rx_byte
C:\Users\farid\AppData\Local\Temp/ccLYUPoY.s:743    .text:000002ea debug_rx_byte_get
C:\Users\farid\AppData\Local\Temp/ccLYUPoY.s:757    .text:000002f0 debug_rx_byte_clear
C:\Users\farid\AppData\Local\Temp/ccLYUPoY.s:771    .text:000002f6 debug_rx_byte_set
C:\Users\farid\AppData\Local\Temp/ccLYUPoY.s:786    .text:000002fc debug_tx_hex
C:\Users\farid\AppData\Local\Temp/ccLYUPoY.s:927    .text:000003b0 debug_tx_bin
C:\Users\farid\AppData\Local\Temp/ccLYUPoY.s:1047   .text:0000045c debug_tx_nl
C:\Users\farid\AppData\Local\Temp/ccLYUPoY.s:1065   .text:0000046a debug_tx_sp
C:\Users\farid\AppData\Local\Temp/ccLYUPoY.s:1080   .text:00000472 debug_tx_cm
C:\Users\farid\AppData\Local\Temp/ccLYUPoY.s:1095   .text:0000047a debug_tx_text
C:\Users\farid\AppData\Local\Temp/ccLYUPoY.s:1136   .text:000004a0 debug_tx_text_nl
C:\Users\farid\AppData\Local\Temp/ccLYUPoY.s:1154   .text:000004aa debug_tx_text_sp
C:\Users\farid\AppData\Local\Temp/ccLYUPoY.s:1172   .text:000004b4 debug_tx_text_cm
C:\Users\farid\AppData\Local\Temp/ccLYUPoY.s:1190   .text:000004be debug_determine_digit_numbers
C:\Users\farid\AppData\Local\Temp/ccLYUPoY.s:1280   .text:0000053c debug_tx_number_digits
C:\Users\farid\AppData\Local\Temp/ccLYUPoY.s:1323   .text:0000055e debug_tx_number
C:\Users\farid\AppData\Local\Temp/ccLYUPoY.s:1371   .text:0000059a debug_tx_number_nl
C:\Users\farid\AppData\Local\Temp/ccLYUPoY.s:1389   .text:000005a4 debug_tx_number_sp
C:\Users\farid\AppData\Local\Temp/ccLYUPoY.s:1411   .text:000005ae debug_tx_number_cm
C:\Users\farid\AppData\Local\Temp/ccLYUPoY.s:1431   .text:000005bc debug_tx_number_hex_nl
C:\Users\farid\AppData\Local\Temp/ccLYUPoY.s:1449   .text:000005c6 debug_tx_number_hex_sp
C:\Users\farid\AppData\Local\Temp/ccLYUPoY.s:1467   .text:000005d0 debug_tx_number_hex_cm
C:\Users\farid\AppData\Local\Temp/ccLYUPoY.s:1487   .text:000005de debug_tx_parameter_nl
C:\Users\farid\AppData\Local\Temp/ccLYUPoY.s:1520   .text:00000604 debug_tx_parameter_sp
C:\Users\farid\AppData\Local\Temp/ccLYUPoY.s:1553   .text:0000062a debug_tx_parameter_cm
C:\Users\farid\AppData\Local\Temp/ccLYUPoY.s:1586   .text:00000650 debug_tx_parameter_hex_nl
C:\Users\farid\AppData\Local\Temp/ccLYUPoY.s:1619   .text:00000676 debug_tx_parameter_hex_sp
C:\Users\farid\AppData\Local\Temp/ccLYUPoY.s:1652   .text:0000069c Debug_tx_parameter_hex_cm
C:\Users\farid\AppData\Local\Temp/ccLYUPoY.s:1685   .text:000006c2 debug_buf_get
C:\Users\farid\AppData\Local\Temp/ccLYUPoY.s:1705   .text:000006ce debug_buf_index_get
C:\Users\farid\AppData\Local\Temp/ccLYUPoY.s:1719   .text:000006d4 debug_flush_buf
C:\Users\farid\AppData\Local\Temp/ccLYUPoY.s:1749   .text:000006ee debug_databsy_get
C:\Users\farid\AppData\Local\Temp/ccLYUPoY.s:1763   .text:000006f4 debug_data_available_rx_buf
C:\Users\farid\AppData\Local\Temp/ccLYUPoY.s:1802   .text:00000714 debug_available_bytes_rx_buf
C:\Users\farid\AppData\Local\Temp/ccLYUPoY.s:1820   .text:0000071a debug_init
C:\Users\farid\AppData\Local\Temp/ccLYUPoY.s:1838   .text:00000728 __vector_5
C:\Users\farid\AppData\Local\Temp/ccLYUPoY.s:1921   .text:000007aa __vector_13
C:\Users\farid\AppData\Local\Temp/ccLYUPoY.s:1961   .data:00000002 TIM1_BAUD_9600
C:\Users\farid\AppData\Local\Temp/ccLYUPoY.s:1968   .data:00000008 TIM1_BAUD_19200

UNDEFINED SYMBOLS
__udivmodsi4
__do_copy_data
__do_clear_bss
