   1               		.file	"debug.c"
   2               	__SREG__ = 0x3f
   3               	__SP_H__ = 0x3e
   4               	__SP_L__ = 0x3d
   5               	__CCP__  = 0x34
   6               	__tmp_reg__ = 0
   7               	__zero_reg__ = 1
  15               	.Ltext0:
  16               	.global	debug_struct_init
  18               	debug_struct_init:
  19               	.LFB6:
  20               	.LM1:
  21               	/* prologue: function */
  22               	/* frame size = 0 */
  23               	.LM2:
  24 0000 1092 0000 		sts debug,__zero_reg__
  25               	.LM3:
  26 0004 1092 0000 		sts debug+1,__zero_reg__
  27               	.LM4:
  28 0008 81E0      		ldi r24,lo8(1)
  29 000a 8093 0000 		sts debug+2,r24
  30 000e 80E0      		ldi r24,lo8(0)
  31 0010 90E0      		ldi r25,hi8(0)
  32               	.L2:
  33               	.LBB48:
  34               	.LM5:
  35 0012 FC01      		movw r30,r24
  36 0014 E050      		subi r30,lo8(-(debug))
  37 0016 F040      		sbci r31,hi8(-(debug))
  38 0018 1382      		std Z+3,__zero_reg__
  39 001a 0196      		adiw r24,1
  40               	.LM6:
  41 001c 8032      		cpi r24,32
  42 001e 9105      		cpc r25,__zero_reg__
  43 0020 01F4      		brne .L2
  44               	.LBE48:
  45               	.LM7:
  46 0022 1092 0000 		sts debug+35,__zero_reg__
  47 0026 E0E0      		ldi r30,lo8(debug+36)
  48 0028 F0E0      		ldi r31,hi8(debug+36)
  49               	.L3:
  50               	.LBB49:
  51               	.LM8:
  52 002a 1192      		st Z+,__zero_reg__
  53               	.LM9:
  54 002c 80E0      		ldi r24,hi8(debug+44)
  55 002e E030      		cpi r30,lo8(debug+44)
  56 0030 F807      		cpc r31,r24
  57 0032 01F4      		brne .L3
  58               	.LBE49:
  59               	.LM10:
  60 0034 1082      		st Z,__zero_reg__
  61               	/* epilogue start */
  62               	.LM11:
  63 0036 0895      		ret
  64               	.LFE6:
  66               	.global	debug_timings_init
  68               	debug_timings_init:
  69               	.LFB7:
  70               	.LM12:
  71               	/* prologue: function */
  72               	/* frame size = 0 */
  73               	.LM13:
  74 0038 14BC      		out 68-32,__zero_reg__
  75               	.LM14:
  76 003a 15BC      		out 69-32,__zero_reg__
  77               	.LM15:
  78 003c 1092 6E00 		sts 110,__zero_reg__
  79               	.LM16:
  80 0040 8FEF      		ldi r24,lo8(-1)
  81 0042 85BB      		out 53-32,r24
  82               	.LM17:
  83 0044 E8E6      		ldi r30,lo8(104)
  84 0046 F0E0      		ldi r31,hi8(104)
  85 0048 8081      		ld r24,Z
  86 004a 8460      		ori r24,lo8(4)
  87 004c 8083      		st Z,r24
  88               	.LM18:
  89 004e EDE6      		ldi r30,lo8(109)
  90 0050 F0E0      		ldi r31,hi8(109)
  91 0052 8081      		ld r24,Z
  92 0054 8062      		ori r24,lo8(32)
  93 0056 8083      		st Z,r24
  94               	.LM19:
  95 0058 DA9A      		sbi 59-32,2
  96               	.LM20:
  97               	/* #APP */
  98               	 ;  98 "debug.c" 1
  99 005a 7894      		sei
 100               	 ;  0 "" 2
 101               	/* epilogue start */
 102               	.LM21:
 103               	/* #NOAPP */
 104 005c 0895      		ret
 105               	.LFE7:
 107               	.global	debug_timer_start
 109               	debug_timer_start:
 110               	.LFB8:
 111               	.LM22:
 112               	/* prologue: function */
 113               	/* frame size = 0 */
 114               	.LM23:
 115 005e 8FEF      		ldi r24,lo8(-1)
 116 0060 85BB      		out 53-32,r24
 117               	.LM24:
 118 0062 EEE6      		ldi r30,lo8(110)
 119 0064 F0E0      		ldi r31,hi8(110)
 120 0066 1082      		st Z,__zero_reg__
 121               	.LM25:
 122 0068 8AE0      		ldi r24,lo8(10)
 123 006a 86BD      		out 70-32,r24
 124               	.LM26:
 125 006c 84E0      		ldi r24,lo8(4)
 126 006e 85BD      		out 69-32,r24
 127               	.LM27:
 128 0070 81E0      		ldi r24,lo8(1)
 129 0072 85BB      		out 53-32,r24
 130               	.LM28:
 131 0074 8083      		st Z,r24
 132               	/* epilogue start */
 133               	.LM29:
 134 0076 0895      		ret
 135               	.LFE8:
 137               	.global	debug_timer_stop
 139               	debug_timer_stop:
 140               	.LFB9:
 141               	.LM30:
 142               	/* prologue: function */
 143               	/* frame size = 0 */
 144               	.LM31:
 145 0078 1092 6E00 		sts 110,__zero_reg__
 146               	.LM32:
 147 007c 15BC      		out 69-32,__zero_reg__
 148               	.LM33:
 149 007e 16BC      		out 70-32,__zero_reg__
 150               	/* epilogue start */
 151               	.LM34:
 152 0080 0895      		ret
 153               	.LFE9:
 155               	.global	debug_gpio_init
 157               	debug_gpio_init:
 158               	.LFB10:
 159               	.LM35:
 160               	/* prologue: function */
 161               	/* frame size = 0 */
 162               	.LM36:
 163 0082 569A      		sbi 42-32,6
 164               	.LM37:
 165 0084 5E9A      		sbi 43-32,6
 166               	.LM38:
 167 0086 5598      		cbi 42-32,5
 168               	.LM39:
 169 0088 5D9A      		sbi 43-32,5
 170               	.LM40:
 171 008a 519A      		sbi 42-32,1
 172               	.LM41:
 173 008c 5998      		cbi 43-32,1
 174               	/* epilogue start */
 175               	.LM42:
 176 008e 0895      		ret
 177               	.LFE10:
 179               	.global	debug_tx_high
 181               	debug_tx_high:
 182               	.LFB11:
 183               	.LM43:
 184               	/* prologue: function */
 185               	/* frame size = 0 */
 186               	.LM44:
 187 0090 5E9A      		sbi 43-32,6
 188               	/* epilogue start */
 189               	.LM45:
 190 0092 0895      		ret
 191               	.LFE11:
 193               	.global	debug_tx_low
 195               	debug_tx_low:
 196               	.LFB12:
 197               	.LM46:
 198               	/* prologue: function */
 199               	/* frame size = 0 */
 200               	.LM47:
 201 0094 5E98      		cbi 43-32,6
 202               	/* epilogue start */
 203               	.LM48:
 204 0096 0895      		ret
 205               	.LFE12:
 207               	.global	debug_tx_set
 209               	debug_tx_set:
 210               	.LFB13:
 211               	.LM49:
 212               	.LVL0:
 213               	/* prologue: function */
 214               	/* frame size = 0 */
 215               	.LM50:
 216 0098 8130      		cpi r24,lo8(1)
 217 009a 01F4      		brne .L20
 218               	.LBB50:
 219               	.LBB51:
 220               	.LM51:
 221 009c 5E9A      		sbi 43-32,6
 222 009e 0895      		ret
 223               	.L20:
 224               	.LBE51:
 225               	.LBE50:
 226               	.LBB52:
 227               	.LBB53:
 228               	.LM52:
 229 00a0 5E98      		cbi 43-32,6
 230 00a2 0895      		ret
 231               	.LBE53:
 232               	.LBE52:
 233               	.LFE13:
 235               	.global	debug_rx_get
 237               	debug_rx_get:
 238               	.LFB14:
 239               	.LM53:
 240               	/* prologue: function */
 241               	/* frame size = 0 */
 242               	.LM54:
 243 00a4 89B1      		in r24,41-32
 244 00a6 90E0      		ldi r25,lo8(0)
 245 00a8 25E0      		ldi r18,5
 246 00aa 9695      	1:	lsr r25
 247 00ac 8795      		ror r24
 248 00ae 2A95      		dec r18
 249 00b0 01F4      		brne 1b
 250               	.LM55:
 251 00b2 8170      		andi r24,lo8(1)
 252               	/* epilogue start */
 253 00b4 0895      		ret
 254               	.LFE14:
 256               	.global	debug_delay
 258               	debug_delay:
 259               	.LFB15:
 260               	.LM56:
 261               	.LVL1:
 262               	/* prologue: function */
 263               	/* frame size = 0 */
 264 00b6 9C01      		movw r18,r24
 265               	.LM57:
 266 00b8 16BC      		out 70-32,__zero_reg__
 267               	.LM58:
 268 00ba 82E0      		ldi r24,lo8(2)
 269               	.LVL2:
 270 00bc 85BD      		out 69-32,r24
 271               	.L26:
 272               	.LM59:
 273 00be 86B5      		in r24,70-32
 274 00c0 90E0      		ldi r25,lo8(0)
 275 00c2 8217      		cp r24,r18
 276 00c4 9307      		cpc r25,r19
 277 00c6 00F0      		brlo .L26
 278               	.LM60:
 279 00c8 15BC      		out 69-32,__zero_reg__
 280               	/* epilogue start */
 281               	.LM61:
 282 00ca 0895      		ret
 283               	.LFE15:
 285               	.global	debug_delay_index_0
 287               	debug_delay_index_0:
 288               	.LFB16:
 289               	.LM62:
 290               	/* prologue: function */
 291               	/* frame size = 0 */
 292               	.LM63:
 293 00cc 2091 0000 		lds r18,TIM0_BAUD_38400
 294 00d0 3091 0000 		lds r19,(TIM0_BAUD_38400)+1
 295               	.LBB54:
 296               	.LBB55:
 297               	.LM64:
 298 00d4 16BC      		out 70-32,__zero_reg__
 299               	.LM65:
 300 00d6 82E0      		ldi r24,lo8(2)
 301 00d8 85BD      		out 69-32,r24
 302               	.L30:
 303               	.LM66:
 304 00da 86B5      		in r24,70-32
 305 00dc 90E0      		ldi r25,lo8(0)
 306 00de 8217      		cp r24,r18
 307 00e0 9307      		cpc r25,r19
 308 00e2 00F0      		brlo .L30
 309               	.LM67:
 310 00e4 15BC      		out 69-32,__zero_reg__
 311               	/* epilogue start */
 312               	.LBE55:
 313               	.LBE54:
 314               	.LM68:
 315 00e6 0895      		ret
 316               	.LFE16:
 318               	.global	debug_delay_index_1
 320               	debug_delay_index_1:
 321               	.LFB17:
 322               	.LM69:
 323               	/* prologue: function */
 324               	/* frame size = 0 */
 325               	.LM70:
 326 00e8 2091 0000 		lds r18,TIM0_BAUD_38400+2
 327 00ec 3091 0000 		lds r19,(TIM0_BAUD_38400+2)+1
 328               	.LBB56:
 329               	.LBB57:
 330               	.LM71:
 331 00f0 16BC      		out 70-32,__zero_reg__
 332               	.LM72:
 333 00f2 82E0      		ldi r24,lo8(2)
 334 00f4 85BD      		out 69-32,r24
 335               	.L34:
 336               	.LM73:
 337 00f6 86B5      		in r24,70-32
 338 00f8 90E0      		ldi r25,lo8(0)
 339 00fa 8217      		cp r24,r18
 340 00fc 9307      		cpc r25,r19
 341 00fe 00F0      		brlo .L34
 342               	.LM74:
 343 0100 15BC      		out 69-32,__zero_reg__
 344               	/* epilogue start */
 345               	.LBE57:
 346               	.LBE56:
 347               	.LM75:
 348 0102 0895      		ret
 349               	.LFE17:
 351               	.global	debug_delay_index_2
 353               	debug_delay_index_2:
 354               	.LFB18:
 355               	.LM76:
 356               	/* prologue: function */
 357               	/* frame size = 0 */
 358               	.LM77:
 359 0104 2091 0000 		lds r18,TIM0_BAUD_38400+4
 360 0108 3091 0000 		lds r19,(TIM0_BAUD_38400+4)+1
 361               	.LBB58:
 362               	.LBB59:
 363               	.LM78:
 364 010c 16BC      		out 70-32,__zero_reg__
 365               	.LM79:
 366 010e 82E0      		ldi r24,lo8(2)
 367 0110 85BD      		out 69-32,r24
 368               	.L38:
 369               	.LM80:
 370 0112 86B5      		in r24,70-32
 371 0114 90E0      		ldi r25,lo8(0)
 372 0116 8217      		cp r24,r18
 373 0118 9307      		cpc r25,r19
 374 011a 00F0      		brlo .L38
 375               	.LM81:
 376 011c 15BC      		out 69-32,__zero_reg__
 377               	/* epilogue start */
 378               	.LBE59:
 379               	.LBE58:
 380               	.LM82:
 381 011e 0895      		ret
 382               	.LFE18:
 384               	.global	debug_tx_byte
 386               	debug_tx_byte:
 387               	.LFB19:
 388               	.LM83:
 389               	.LVL3:
 390 0120 DF93      		push r29
 391 0122 CF93      		push r28
 392 0124 CDB7      		in r28,__SP_L__
 393 0126 DEB7      		in r29,__SP_H__
 394 0128 2A97      		sbiw r28,10
 395 012a 0FB6      		in __tmp_reg__,__SREG__
 396 012c F894      		cli
 397 012e DEBF      		out __SP_H__,r29
 398 0130 0FBE      		out __SREG__,__tmp_reg__
 399 0132 CDBF      		out __SP_L__,r28
 400               	/* prologue: function */
 401               	/* frame size = 10 */
 402               	.LM84:
 403 0134 FE01      		movw r30,r28
 404 0136 3196      		adiw r30,1
 405 0138 9AE0      		ldi r25,lo8(10)
 406 013a DF01      		movw r26,r30
 407 013c 1D92      		st X+,__zero_reg__
 408 013e 9A95      	        dec r25
 409 0140 01F4      		brne .-6
 410 0142 91E0      		ldi r25,lo8(1)
 411 0144 9A87      		std Y+10,r25
 412 0146 FE01      		movw r30,r28
 413 0148 3296      		adiw r30,2
 414 014a 20E0      		ldi r18,lo8(0)
 415 014c 30E0      		ldi r19,hi8(0)
 416               	.LBB60:
 417               	.LM85:
 418 014e 482F      		mov r20,r24
 419 0150 50E0      		ldi r21,lo8(0)
 420               	.LVL4:
 421               	.LM86:
 422 0152 61E0      		ldi r22,lo8(1)
 423               	.LVL5:
 424               	.L44:
 425               	.LM87:
 426 0154 CA01      		movw r24,r20
 427 0156 022E      		mov r0,r18
 428 0158 00C0      		rjmp 2f
 429 015a 9595      	1:	asr r25
 430 015c 8795      		ror r24
 431 015e 0A94      	2:	dec r0
 432 0160 02F4      		brpl 1b
 433 0162 80FF      		sbrs r24,0
 434 0164 00C0      		rjmp .L42
 435               	.LM88:
 436 0166 6083      		st Z,r22
 437 0168 00C0      		rjmp .L43
 438               	.L42:
 439               	.LM89:
 440 016a 1082      		st Z,__zero_reg__
 441               	.L43:
 442 016c 2F5F      		subi r18,lo8(-(1))
 443 016e 3F4F      		sbci r19,hi8(-(1))
 444 0170 3196      		adiw r30,1
 445               	.LM90:
 446 0172 2830      		cpi r18,8
 447 0174 3105      		cpc r19,__zero_reg__
 448 0176 01F4      		brne .L44
 449               	.LBE60:
 450               	.LM91:
 451 0178 6FB7      		in r22,__SREG__
 452               	.LVL6:
 453               	.LM92:
 454               	/* #APP */
 455               	 ;  369 "debug.c" 1
 456 017a F894      		cli
 457               	 ;  0 "" 2
 458               	/* #NOAPP */
 459               	.LBB61:
 460               	.LBB62:
 461               	.LBB63:
 462               	.LM93:
 463 017c 2091 0000 		lds r18,TIM0_BAUD_38400
 464 0180 3091 0000 		lds r19,(TIM0_BAUD_38400)+1
 465 0184 FE01      		movw r30,r28
 466 0186 3196      		adiw r30,1
 467               	.LBB64:
 468               	.LBB65:
 469               	.LM94:
 470 0188 72E0      		ldi r23,lo8(2)
 471               	.LBE65:
 472               	.LBE64:
 473               	.LBE63:
 474               	.LBE62:
 475               	.LM95:
 476 018a AE01      		movw r20,r28
 477               	.LVL7:
 478 018c 455F      		subi r20,lo8(-(11))
 479 018e 5F4F      		sbci r21,hi8(-(11))
 480               	.L48:
 481               	.LBB69:
 482               	.LBB70:
 483               	.LM96:
 484 0190 8081      		ld r24,Z
 485 0192 8130      		cpi r24,lo8(1)
 486 0194 01F4      		brne .L45
 487               	.LBB71:
 488               	.LBB72:
 489               	.LM97:
 490 0196 5E9A      		sbi 43-32,6
 491 0198 00C0      		rjmp .L46
 492               	.L45:
 493               	.LBE72:
 494               	.LBE71:
 495               	.LBB73:
 496               	.LBB74:
 497               	.LM98:
 498 019a 5E98      		cbi 43-32,6
 499               	.L46:
 500               	.LBE74:
 501               	.LBE73:
 502               	.LBE70:
 503               	.LBE69:
 504               	.LBB75:
 505               	.LBB68:
 506               	.LBB67:
 507               	.LBB66:
 508               	.LM99:
 509 019c 16BC      		out 70-32,__zero_reg__
 510               	.LM100:
 511 019e 75BD      		out 69-32,r23
 512               	.L47:
 513               	.LM101:
 514 01a0 86B5      		in r24,70-32
 515 01a2 90E0      		ldi r25,lo8(0)
 516 01a4 8217      		cp r24,r18
 517 01a6 9307      		cpc r25,r19
 518 01a8 00F0      		brlo .L47
 519               	.LM102:
 520 01aa 15BC      		out 69-32,__zero_reg__
 521 01ac 3196      		adiw r30,1
 522               	.LBE66:
 523               	.LBE67:
 524               	.LBE68:
 525               	.LBE75:
 526               	.LM103:
 527 01ae E417      		cp r30,r20
 528 01b0 F507      		cpc r31,r21
 529 01b2 01F4      		brne .L48
 530               	.LBE61:
 531               	.LM104:
 532 01b4 6FBF      		out __SREG__,r22
 533               	/* epilogue start */
 534               	.LM105:
 535 01b6 2A96      		adiw r28,10
 536 01b8 0FB6      		in __tmp_reg__,__SREG__
 537 01ba F894      		cli
 538 01bc DEBF      		out __SP_H__,r29
 539 01be 0FBE      		out __SREG__,__tmp_reg__
 540 01c0 CDBF      		out __SP_L__,r28
 541 01c2 CF91      		pop r28
 542 01c4 DF91      		pop r29
 543 01c6 0895      		ret
 544               	.LFE19:
 546               	.global	debug_rx_byte
 548               	debug_rx_byte:
 549               	.LFB20:
 550               	.LM106:
 551               	/* prologue: function */
 552               	/* frame size = 0 */
 553               	.LBB76:
 554               	.LBB77:
 555               	.LM107:
 556 01c8 4D9B      		sbis 41-32,5
 557 01ca 00C0      		rjmp .L54
 558               	.LBE77:
 559               	.LBE76:
 560               	.LM108:
 561 01cc 83E0      		ldi r24,lo8(3)
 562 01ce 8093 0000 		sts debug,r24
 563 01d2 00C0      		rjmp .L55
 564               	.L56:
 565               	.LBB78:
 566               	.LBB96:
 567               	.LBB97:
 568               	.LBB98:
 569               	.LBB99:
 570               	.LM109:
 571 01d4 86B5      		in r24,70-32
 572 01d6 90E0      		ldi r25,lo8(0)
 573 01d8 8217      		cp r24,r18
 574 01da 9307      		cpc r25,r19
 575 01dc 00F0      		brlo .L56
 576               	.LM110:
 577 01de 15BC      		out 69-32,__zero_reg__
 578               	.LBE99:
 579               	.LBE98:
 580               	.LBE97:
 581               	.LBE96:
 582               	.LBB79:
 583               	.LBB91:
 584               	.LBB92:
 585               	.LM111:
 586 01e0 6091 0000 		lds r22,TIM0_BAUD_38400+2
 587 01e4 7091 0000 		lds r23,(TIM0_BAUD_38400+2)+1
 588 01e8 30E0      		ldi r19,lo8(0)
 589               	.LVL8:
 590 01ea 40E0      		ldi r20,lo8(0)
 591               	.LVL9:
 592 01ec 20E0      		ldi r18,lo8(0)
 593               	.LVL10:
 594               	.LBE92:
 595               	.LBE91:
 596               	.LM112:
 597 01ee 52E0      		ldi r21,lo8(2)
 598               	.LM113:
 599 01f0 E1E0      		ldi r30,lo8(1)
 600               	.L67:
 601               	.LM114:
 602 01f2 2223      		tst r18
 603 01f4 01F4      		brne .L57
 604               	.LBB89:
 605               	.LBB90:
 606               	.LM115:
 607 01f6 4D9B      		sbis 41-32,5
 608 01f8 00C0      		rjmp .L58
 609               	.L68:
 610               	.LBE90:
 611               	.LBE89:
 612               	.LBB88:
 613               	.LBB95:
 614               	.LBB93:
 615               	.LBB94:
 616               	.LM116:
 617 01fa 16BC      		out 70-32,__zero_reg__
 618               	.LM117:
 619 01fc 55BD      		out 69-32,r21
 620               	.L59:
 621               	.LM118:
 622 01fe 86B5      		in r24,70-32
 623 0200 90E0      		ldi r25,lo8(0)
 624 0202 8617      		cp r24,r22
 625 0204 9707      		cpc r25,r23
 626 0206 00F0      		brlo .L59
 627 0208 00C0      		rjmp .L74
 628               	.L57:
 629               	.LBE94:
 630               	.LBE93:
 631               	.LBE95:
 632               	.LBE88:
 633               	.LM119:
 634 020a 822F      		mov r24,r18
 635 020c 8150      		subi r24,lo8(-(-1))
 636 020e 8830      		cpi r24,lo8(8)
 637 0210 00F4      		brsh .L61
 638               	.LBB86:
 639               	.LBB87:
 640               	.LM120:
 641 0212 4D99      		sbic 41-32,5
 642               	.LBE87:
 643               	.LBE86:
 644               	.LM121:
 645 0214 3068      		ori r19,lo8(-128)
 646               	.L62:
 647               	.LM122:
 648 0216 599A      		sbi 43-32,1
 649               	.LM123:
 650 0218 5998      		cbi 43-32,1
 651               	.LM124:
 652 021a 2830      		cpi r18,lo8(8)
 653 021c 01F0      		breq .L63
 654               	.LM125:
 655 021e 3695      		lsr r19
 656               	.L63:
 657               	.LBB82:
 658               	.LBB83:
 659               	.LBB84:
 660               	.LBB85:
 661               	.LM126:
 662 0220 16BC      		out 70-32,__zero_reg__
 663               	.LM127:
 664 0222 55BD      		out 69-32,r21
 665               	.L64:
 666               	.LM128:
 667 0224 86B5      		in r24,70-32
 668 0226 90E0      		ldi r25,lo8(0)
 669 0228 8617      		cp r24,r22
 670 022a 9707      		cpc r25,r23
 671 022c 00F0      		brlo .L64
 672               	.L74:
 673               	.LM129:
 674 022e 15BC      		out 69-32,__zero_reg__
 675 0230 00C0      		rjmp .L60
 676               	.L61:
 677               	.LBE85:
 678               	.LBE84:
 679               	.LBE83:
 680               	.LBE82:
 681               	.LM130:
 682 0232 2930      		cpi r18,lo8(9)
 683 0234 01F4      		brne .L60
 684               	.LBB80:
 685               	.LBB81:
 686               	.LM131:
 687 0236 4D9B      		sbis 41-32,5
 688 0238 00C0      		rjmp .L65
 689               	.LBE81:
 690               	.LBE80:
 691               	.LM132:
 692 023a 599A      		sbi 43-32,1
 693               	.LM133:
 694 023c 5998      		cbi 43-32,1
 695               	.LM134:
 696 023e 4170      		andi r20,lo8(1)
 697               	.LM135:
 698 0240 4130      		cpi r20,lo8(1)
 699 0242 01F4      		brne .L66
 700               	.LM136:
 701 0244 3093 0000 		sts debug+1,r19
 702               	.LM137:
 703 0248 1092 0000 		sts debug,__zero_reg__
 704 024c 00C0      		rjmp .L60
 705               	.L66:
 706               	.LM138:
 707 024e 1092 0000 		sts debug+1,__zero_reg__
 708               	.LM139:
 709 0252 E093 0000 		sts debug,r30
 710               	.L60:
 711               	.LM140:
 712 0256 2F5F      		subi r18,lo8(-(1))
 713 0258 2A30      		cpi r18,lo8(10)
 714 025a 01F4      		brne .L67
 715               	.L55:
 716               	.LBE79:
 717               	.LBE78:
 718               	.LM141:
 719 025c 8091 0000 		lds r24,debug+1
 720               	/* epilogue start */
 721               	.LM142:
 722 0260 0895      		ret
 723               	.LVL11:
 724               	.L54:
 725               	.LBB105:
 726               	.LBB103:
 727               	.LBB102:
 728               	.LM143:
 729 0262 2091 0000 		lds r18,TIM0_BAUD_38400+4
 730 0266 3091 0000 		lds r19,(TIM0_BAUD_38400+4)+1
 731               	.LBB101:
 732               	.LBB100:
 733               	.LM144:
 734 026a 16BC      		out 70-32,__zero_reg__
 735               	.LM145:
 736 026c 82E0      		ldi r24,lo8(2)
 737 026e 85BD      		out 69-32,r24
 738 0270 00C0      		rjmp .L56
 739               	.LVL12:
 740               	.L58:
 741               	.LBE100:
 742               	.LBE101:
 743               	.LBE102:
 744               	.LBE103:
 745               	.LBB104:
 746               	.LM146:
 747 0272 599A      		sbi 43-32,1
 748               	.LM147:
 749 0274 5998      		cbi 43-32,1
 750 0276 41E0      		ldi r20,lo8(1)
 751 0278 00C0      		rjmp .L68
 752               	.L65:
 753               	.LM148:
 754 027a 1092 0000 		sts debug+1,__zero_reg__
 755               	.LM149:
 756 027e 5093 0000 		sts debug,r21
 757 0282 00C0      		rjmp .L60
 758               	.LBE104:
 759               	.LBE105:
 760               	.LFE20:
 762               	.global	debug_rx_byte_get
 764               	debug_rx_byte_get:
 765               	.LFB21:
 766               	.LM150:
 767               	/* prologue: function */
 768               	/* frame size = 0 */
 769               	.LM151:
 770 0284 8091 0000 		lds r24,debug+1
 771               	/* epilogue start */
 772               	.LM152:
 773 0288 0895      		ret
 774               	.LFE21:
 776               	.global	debug_rx_byte_clear
 778               	debug_rx_byte_clear:
 779               	.LFB22:
 780               	.LM153:
 781               	/* prologue: function */
 782               	/* frame size = 0 */
 783               	.LM154:
 784 028a 1092 0000 		sts debug+1,__zero_reg__
 785               	/* epilogue start */
 786               	.LM155:
 787 028e 0895      		ret
 788               	.LFE22:
 790               	.global	debug_rx_byte_set
 792               	debug_rx_byte_set:
 793               	.LFB23:
 794               	.LM156:
 795               	.LVL13:
 796               	/* prologue: function */
 797               	/* frame size = 0 */
 798               	.LM157:
 799 0290 8093 0000 		sts debug+1,r24
 800               	/* epilogue start */
 801               	.LM158:
 802 0294 0895      		ret
 803               	.LFE23:
 805               	.global	debug_tx_hex
 807               	debug_tx_hex:
 808               	.LFB24:
 809               	.LM159:
 810               	.LVL14:
 811 0296 BF92      		push r11
 812 0298 CF92      		push r12
 813 029a DF92      		push r13
 814 029c EF92      		push r14
 815 029e FF92      		push r15
 816 02a0 0F93      		push r16
 817 02a2 1F93      		push r17
 818 02a4 CF93      		push r28
 819 02a6 DF93      		push r29
 820               	/* prologue: function */
 821               	/* frame size = 0 */
 822 02a8 7B01      		movw r14,r22
 823 02aa 8C01      		movw r16,r24
 824               	.LM160:
 825 02ac 8FEF      		ldi r24,lo8(255)
 826 02ae E816      		cp r14,r24
 827 02b0 F104      		cpc r15,__zero_reg__
 828 02b2 0105      		cpc r16,__zero_reg__
 829 02b4 1105      		cpc r17,__zero_reg__
 830 02b6 01F0      		breq .+2
 831 02b8 00F4      		brsh .L82
 832               	.LVL15:
 833 02ba C8E0      		ldi r28,lo8(8)
 834 02bc D0E0      		ldi r29,hi8(8)
 835               	.LVL16:
 836 02be 52E0      		ldi r21,lo8(2)
 837 02c0 C52E      		mov r12,r21
 838 02c2 D12C      		mov r13,__zero_reg__
 839               	.LVL17:
 840 02c4 00C0      		rjmp .L83
 841               	.LVL18:
 842               	.L82:
 843               	.LM161:
 844 02c6 80E0      		ldi r24,lo8(65536)
 845 02c8 E816      		cp r14,r24
 846 02ca 80E0      		ldi r24,hi8(65536)
 847 02cc F806      		cpc r15,r24
 848 02ce 81E0      		ldi r24,hlo8(65536)
 849 02d0 0807      		cpc r16,r24
 850 02d2 80E0      		ldi r24,hhi8(65536)
 851 02d4 1807      		cpc r17,r24
 852 02d6 00F0      		brlo .L84
 853 02d8 C0E2      		ldi r28,lo8(32)
 854 02da D0E0      		ldi r29,hi8(32)
 855               	.LVL19:
 856 02dc 48E0      		ldi r20,lo8(8)
 857 02de C42E      		mov r12,r20
 858 02e0 D12C      		mov r13,__zero_reg__
 859               	.LVL20:
 860 02e2 00C0      		rjmp .L83
 861               	.LVL21:
 862               	.L84:
 863 02e4 C0E1      		ldi r28,lo8(16)
 864 02e6 D0E0      		ldi r29,hi8(16)
 865               	.LVL22:
 866 02e8 34E0      		ldi r19,lo8(4)
 867 02ea C32E      		mov r12,r19
 868 02ec D12C      		mov r13,__zero_reg__
 869               	.LVL23:
 870               	.L83:
 871               	.LM162:
 872 02ee 80E3      		ldi r24,lo8(48)
 873 02f0 0E94 0000 		call debug_tx_byte
 874               	.LM163:
 875 02f4 88E7      		ldi r24,lo8(120)
 876 02f6 0E94 0000 		call debug_tx_byte
 877 02fa BB24      		clr r11
 878               	.LVL24:
 879 02fc 00C0      		rjmp .L85
 880               	.LVL25:
 881               	.L88:
 882               	.LBB106:
 883               	.LM164:
 884 02fe 2497      		sbiw r28,4
 885               	.LM165:
 886 0300 D801      		movw r26,r16
 887 0302 C701      		movw r24,r14
 888               	.LVL26:
 889 0304 0C2E      		mov r0,r28
 890 0306 00C0      		rjmp 2f
 891 0308 B695      	1:	lsr r27
 892 030a A795      		ror r26
 893 030c 9795      		ror r25
 894 030e 8795      		ror r24
 895 0310 0A94      	2:	dec r0
 896 0312 02F4      		brpl 1b
 897 0314 90E0      		ldi r25,lo8(0)
 898               	.LVL27:
 899 0316 8F70      		andi r24,lo8(15)
 900 0318 9070      		andi r25,hi8(15)
 901               	.LVL28:
 902               	.LM166:
 903 031a 8A30      		cpi r24,10
 904 031c 9105      		cpc r25,__zero_reg__
 905 031e 00F0      		brlo .L86
 906               	.LM167:
 907 0320 C796      		adiw r24,55
 908               	.LVL29:
 909 0322 00C0      		rjmp .L87
 910               	.L86:
 911               	.LM168:
 912 0324 C096      		adiw r24,48
 913               	.LVL30:
 914               	.L87:
 915               	.LM169:
 916 0326 0E94 0000 		call debug_tx_byte
 917               	.LVL31:
 918               	.LM170:
 919 032a B394      		inc r11
 920               	.L85:
 921 032c 8B2D      		mov r24,r11
 922 032e 90E0      		ldi r25,lo8(0)
 923               	.LVL32:
 924 0330 8C15      		cp r24,r12
 925 0332 9D05      		cpc r25,r13
 926 0334 00F0      		brlo .L88
 927               	.LVL33:
 928               	/* epilogue start */
 929               	.LBE106:
 930               	.LM171:
 931 0336 DF91      		pop r29
 932 0338 CF91      		pop r28
 933               	.LVL34:
 934 033a 1F91      		pop r17
 935 033c 0F91      		pop r16
 936 033e FF90      		pop r15
 937 0340 EF90      		pop r14
 938               	.LVL35:
 939 0342 DF90      		pop r13
 940 0344 CF90      		pop r12
 941               	.LVL36:
 942 0346 BF90      		pop r11
 943 0348 0895      		ret
 944               	.LFE24:
 946               	.global	debug_tx_bin
 948               	debug_tx_bin:
 949               	.LFB25:
 950               	.LM172:
 951               	.LVL37:
 952 034a AF92      		push r10
 953 034c BF92      		push r11
 954 034e CF92      		push r12
 955 0350 DF92      		push r13
 956 0352 EF92      		push r14
 957 0354 FF92      		push r15
 958 0356 0F93      		push r16
 959 0358 1F93      		push r17
 960 035a CF93      		push r28
 961 035c DF93      		push r29
 962               	/* prologue: function */
 963               	/* frame size = 0 */
 964 035e 7B01      		movw r14,r22
 965 0360 8C01      		movw r16,r24
 966               	.LM173:
 967 0362 6F3F      		cpi r22,lo8(255)
 968 0364 7105      		cpc r23,__zero_reg__
 969 0366 8105      		cpc r24,__zero_reg__
 970 0368 9105      		cpc r25,__zero_reg__
 971 036a 01F0      		breq .+2
 972 036c 00F4      		brsh .L91
 973 036e E7E0      		ldi r30,lo8(7)
 974 0370 DE2E      		mov r13,r30
 975               	.LVL38:
 976 0372 00C0      		rjmp .L92
 977               	.LVL39:
 978               	.L91:
 979               	.LM174:
 980 0374 6030      		cpi r22,lo8(65536)
 981 0376 30E0      		ldi r19,hi8(65536)
 982 0378 7307      		cpc r23,r19
 983 037a 31E0      		ldi r19,hlo8(65536)
 984 037c 8307      		cpc r24,r19
 985 037e 30E0      		ldi r19,hhi8(65536)
 986 0380 9307      		cpc r25,r19
 987 0382 00F0      		brlo .L93
 988 0384 7FE1      		ldi r23,lo8(31)
 989 0386 D72E      		mov r13,r23
 990               	.LVL40:
 991 0388 00C0      		rjmp .L92
 992               	.LVL41:
 993               	.L93:
 994 038a 6FE0      		ldi r22,lo8(15)
 995 038c D62E      		mov r13,r22
 996               	.LVL42:
 997               	.L92:
 998               	.LM175:
 999 038e 80E3      		ldi r24,lo8(48)
 1000 0390 0E94 0000 		call debug_tx_byte
 1001               	.LM176:
 1002 0394 82E6      		ldi r24,lo8(98)
 1003 0396 0E94 0000 		call debug_tx_byte
 1004 039a C0E0      		ldi r28,lo8(0)
 1005 039c D0E0      		ldi r29,hi8(0)
 1006               	.LM177:
 1007 039e CD2C      		mov r12,r13
 1008 03a0 DD24      		clr r13
 1009               	.LVL43:
 1010               	.LBB107:
 1011               	.LM178:
 1012 03a2 5601      		movw r10,r12
 1013 03a4 0894      		sec
 1014 03a6 A11C      		adc r10,__zero_reg__
 1015 03a8 B11C      		adc r11,__zero_reg__
 1016               	.L96:
 1017               	.LM179:
 1018 03aa C601      		movw r24,r12
 1019 03ac 8C1B      		sub r24,r28
 1020 03ae 9D0B      		sbc r25,r29
 1021 03b0 A801      		movw r20,r16
 1022 03b2 9701      		movw r18,r14
 1023 03b4 00C0      		rjmp 2f
 1024 03b6 5695      	1:	lsr r21
 1025 03b8 4795      		ror r20
 1026 03ba 3795      		ror r19
 1027 03bc 2795      		ror r18
 1028 03be 8A95      	2:	dec r24
 1029 03c0 02F4      		brpl 1b
 1030 03c2 DA01      		movw r26,r20
 1031 03c4 C901      		movw r24,r18
 1032 03c6 8170      		andi r24,lo8(1)
 1033 03c8 9070      		andi r25,hi8(1)
 1034 03ca 892B      		or r24,r25
 1035 03cc 01F0      		breq .L94
 1036               	.LM180:
 1037 03ce 81E3      		ldi r24,lo8(49)
 1038 03d0 00C0      		rjmp .L99
 1039               	.L94:
 1040               	.LM181:
 1041 03d2 80E3      		ldi r24,lo8(48)
 1042               	.L99:
 1043 03d4 0E94 0000 		call debug_tx_byte
 1044 03d8 2196      		adiw r28,1
 1045               	.LM182:
 1046 03da CA15      		cp r28,r10
 1047 03dc DB05      		cpc r29,r11
 1048 03de 01F4      		brne .L96
 1049               	/* epilogue start */
 1050               	.LBE107:
 1051               	.LM183:
 1052 03e0 DF91      		pop r29
 1053 03e2 CF91      		pop r28
 1054 03e4 1F91      		pop r17
 1055 03e6 0F91      		pop r16
 1056 03e8 FF90      		pop r15
 1057 03ea EF90      		pop r14
 1058               	.LVL44:
 1059 03ec DF90      		pop r13
 1060 03ee CF90      		pop r12
 1061 03f0 BF90      		pop r11
 1062 03f2 AF90      		pop r10
 1063 03f4 0895      		ret
 1064               	.LFE25:
 1066               	.global	debug_tx_nl
 1068               	debug_tx_nl:
 1069               	.LFB26:
 1070               	.LM184:
 1071               	/* prologue: function */
 1072               	/* frame size = 0 */
 1073               	.LM185:
 1074 03f6 8DE0      		ldi r24,lo8(13)
 1075 03f8 0E94 0000 		call debug_tx_byte
 1076               	.LM186:
 1077 03fc 8AE0      		ldi r24,lo8(10)
 1078 03fe 0E94 0000 		call debug_tx_byte
 1079               	/* epilogue start */
 1080               	.LM187:
 1081 0402 0895      		ret
 1082               	.LFE26:
 1084               	.global	debug_tx_sp
 1086               	debug_tx_sp:
 1087               	.LFB27:
 1088               	.LM188:
 1089               	/* prologue: function */
 1090               	/* frame size = 0 */
 1091               	.LM189:
 1092 0404 80E2      		ldi r24,lo8(32)
 1093 0406 0E94 0000 		call debug_tx_byte
 1094               	/* epilogue start */
 1095               	.LM190:
 1096 040a 0895      		ret
 1097               	.LFE27:
 1099               	.global	debug_tx_cm
 1101               	debug_tx_cm:
 1102               	.LFB28:
 1103               	.LM191:
 1104               	/* prologue: function */
 1105               	/* frame size = 0 */
 1106               	.LM192:
 1107 040c 8CE2      		ldi r24,lo8(44)
 1108 040e 0E94 0000 		call debug_tx_byte
 1109               	/* epilogue start */
 1110               	.LM193:
 1111 0412 0895      		ret
 1112               	.LFE28:
 1114               	.global	debug_tx_text
 1116               	debug_tx_text:
 1117               	.LFB29:
 1118               	.LM194:
 1119               	.LVL45:
 1120 0414 1F93      		push r17
 1121 0416 CF93      		push r28
 1122 0418 DF93      		push r29
 1123               	/* prologue: function */
 1124               	/* frame size = 0 */
 1125 041a EC01      		movw r28,r24
 1126               	.LM195:
 1127 041c 10E0      		ldi r17,lo8(0)
 1128               	.LVL46:
 1129 041e 00C0      		rjmp .L107
 1130               	.LVL47:
 1131               	.L108:
 1132               	.LM196:
 1133 0420 0E94 0000 		call debug_tx_byte
 1134               	.LM197:
 1135 0424 1F5F      		subi r17,lo8(-(1))
 1136               	.LVL48:
 1137               	.L107:
 1138               	.LM198:
 1139 0426 FE01      		movw r30,r28
 1140 0428 E10F      		add r30,r17
 1141 042a F11D      		adc r31,__zero_reg__
 1142 042c 8081      		ld r24,Z
 1143 042e 8823      		tst r24
 1144 0430 01F4      		brne .L108
 1145               	/* epilogue start */
 1146               	.LM199:
 1147 0432 DF91      		pop r29
 1148 0434 CF91      		pop r28
 1149               	.LVL49:
 1150 0436 1F91      		pop r17
 1151               	.LVL50:
 1152 0438 0895      		ret
 1153               	.LFE29:
 1155               	.global	debug_tx_text_nl
 1157               	debug_tx_text_nl:
 1158               	.LFB30:
 1159               	.LM200:
 1160               	.LVL51:
 1161               	/* prologue: function */
 1162               	/* frame size = 0 */
 1163               	.LM201:
 1164 043a 0E94 0000 		call debug_tx_text
 1165               	.LVL52:
 1166               	.LM202:
 1167 043e 0E94 0000 		call debug_tx_nl
 1168               	/* epilogue start */
 1169               	.LM203:
 1170 0442 0895      		ret
 1171               	.LFE30:
 1173               	.global	debug_tx_text_sp
 1175               	debug_tx_text_sp:
 1176               	.LFB31:
 1177               	.LM204:
 1178               	.LVL53:
 1179               	/* prologue: function */
 1180               	/* frame size = 0 */
 1181               	.LM205:
 1182 0444 0E94 0000 		call debug_tx_text
 1183               	.LVL54:
 1184               	.LM206:
 1185 0448 0E94 0000 		call debug_tx_sp
 1186               	/* epilogue start */
 1187               	.LM207:
 1188 044c 0895      		ret
 1189               	.LFE31:
 1191               	.global	debug_tx_text_cm
 1193               	debug_tx_text_cm:
 1194               	.LFB32:
 1195               	.LM208:
 1196               	.LVL55:
 1197               	/* prologue: function */
 1198               	/* frame size = 0 */
 1199               	.LM209:
 1200 044e 0E94 0000 		call debug_tx_text
 1201               	.LVL56:
 1202               	.LM210:
 1203 0452 0E94 0000 		call debug_tx_cm
 1204               	/* epilogue start */
 1205               	.LM211:
 1206 0456 0895      		ret
 1207               	.LFE32:
 1209               	.global	debug_determine_digit_numbers
 1211               	debug_determine_digit_numbers:
 1212               	.LFB33:
 1213               	.LM212:
 1214               	.LVL57:
 1215 0458 BF92      		push r11
 1216 045a CF92      		push r12
 1217 045c DF92      		push r13
 1218 045e EF92      		push r14
 1219 0460 FF92      		push r15
 1220 0462 0F93      		push r16
 1221 0464 1F93      		push r17
 1222               	/* prologue: function */
 1223               	/* frame size = 0 */
 1224 0466 6B01      		movw r12,r22
 1225 0468 7C01      		movw r14,r24
 1226               	.LM213:
 1227 046a 6115      		cp r22,__zero_reg__
 1228 046c 7105      		cpc r23,__zero_reg__
 1229 046e 8105      		cpc r24,__zero_reg__
 1230 0470 9105      		cpc r25,__zero_reg__
 1231 0472 01F4      		brne .L117
 1232               	.LM214:
 1233 0474 1092 0000 		sts debug+36,__zero_reg__
 1234               	.LM215:
 1235 0478 81E0      		ldi r24,lo8(1)
 1236 047a 8093 0000 		sts debug+44,r24
 1237 047e 00C0      		rjmp .L120
 1238               	.L117:
 1239 0480 BB24      		clr r11
 1240               	.LVL58:
 1241               	.L119:
 1242               	.LM216:
 1243 0482 0B2D      		mov r16,r11
 1244 0484 10E0      		ldi r17,lo8(0)
 1245               	.LVL59:
 1246 0486 0050      		subi r16,lo8(-(debug))
 1247 0488 1040      		sbci r17,hi8(-(debug))
 1248               	.LVL60:
 1249 048a C701      		movw r24,r14
 1250 048c B601      		movw r22,r12
 1251               	.LVL61:
 1252 048e 2AE0      		ldi r18,lo8(10)
 1253 0490 30E0      		ldi r19,hi8(10)
 1254 0492 40E0      		ldi r20,hlo8(10)
 1255 0494 50E0      		ldi r21,hhi8(10)
 1256 0496 0E94 0000 		call __udivmodsi4
 1257 049a F801      		movw r30,r16
 1258 049c 64A3      		std Z+36,r22
 1259               	.LM217:
 1260 049e C701      		movw r24,r14
 1261 04a0 B601      		movw r22,r12
 1262 04a2 2AE0      		ldi r18,lo8(10)
 1263 04a4 30E0      		ldi r19,hi8(10)
 1264 04a6 40E0      		ldi r20,hlo8(10)
 1265 04a8 50E0      		ldi r21,hhi8(10)
 1266 04aa 0E94 0000 		call __udivmodsi4
 1267 04ae C901      		movw r24,r18
 1268 04b0 DA01      		movw r26,r20
 1269 04b2 6C01      		movw r12,r24
 1270 04b4 7D01      		movw r14,r26
 1271               	.LM218:
 1272 04b6 B394      		inc r11
 1273               	.LVL62:
 1274               	.LM219:
 1275 04b8 C114      		cp r12,__zero_reg__
 1276 04ba D104      		cpc r13,__zero_reg__
 1277 04bc E104      		cpc r14,__zero_reg__
 1278 04be F104      		cpc r15,__zero_reg__
 1279 04c0 01F4      		brne .L119
 1280               	.LM220:
 1281 04c2 B092 0000 		sts debug+44,r11
 1282               	.LVL63:
 1283               	.L120:
 1284               	/* epilogue start */
 1285               	.LM221:
 1286 04c6 1F91      		pop r17
 1287               	.LVL64:
 1288 04c8 0F91      		pop r16
 1289 04ca FF90      		pop r15
 1290 04cc EF90      		pop r14
 1291 04ce DF90      		pop r13
 1292 04d0 CF90      		pop r12
 1293               	.LVL65:
 1294 04d2 BF90      		pop r11
 1295               	.LVL66:
 1296 04d4 0895      		ret
 1297               	.LFE33:
 1299               	.global	debug_tx_number_digits
 1301               	debug_tx_number_digits:
 1302               	.LFB34:
 1303               	.LM222:
 1304 04d6 1F93      		push r17
 1305               	/* prologue: function */
 1306               	/* frame size = 0 */
 1307               	.LBB108:
 1308               	.LM223:
 1309 04d8 1091 0000 		lds r17,debug+44
 1310               	.LVL67:
 1311 04dc 00C0      		rjmp .L123
 1312               	.L124:
 1313               	.LBB109:
 1314               	.LM224:
 1315 04de 1150      		subi r17,lo8(-(-1))
 1316               	.LVL68:
 1317               	.LM225:
 1318 04e0 E12F      		mov r30,r17
 1319 04e2 F0E0      		ldi r31,lo8(0)
 1320 04e4 E050      		subi r30,lo8(-(debug))
 1321 04e6 F040      		sbci r31,hi8(-(debug))
 1322 04e8 84A1      		ldd r24,Z+36
 1323               	.LVL69:
 1324               	.LM226:
 1325 04ea 805D      		subi r24,lo8(-(48))
 1326               	.LVL70:
 1327 04ec 0E94 0000 		call debug_tx_byte
 1328               	.LVL71:
 1329               	.L123:
 1330               	.LBE109:
 1331               	.LM227:
 1332 04f0 1123      		tst r17
 1333 04f2 01F4      		brne .L124
 1334               	/* epilogue start */
 1335               	.LBE108:
 1336               	.LM228:
 1337 04f4 1F91      		pop r17
 1338               	.LVL72:
 1339 04f6 0895      		ret
 1340               	.LFE34:
 1342               	.global	debug_tx_number
 1344               	debug_tx_number:
 1345               	.LFB35:
 1346               	.LM229:
 1347               	.LVL73:
 1348 04f8 EF92      		push r14
 1349 04fa FF92      		push r15
 1350 04fc 0F93      		push r16
 1351 04fe 1F93      		push r17
 1352               	/* prologue: function */
 1353               	/* frame size = 0 */
 1354 0500 7B01      		movw r14,r22
 1355 0502 8C01      		movw r16,r24
 1356               	.LM230:
 1357 0504 97FF      		sbrs r25,7
 1358 0506 00C0      		rjmp .L127
 1359               	.LM231:
 1360 0508 8DE2      		ldi r24,lo8(45)
 1361 050a 0E94 0000 		call debug_tx_byte
 1362               	.LVL74:
 1363               	.LM232:
 1364 050e 1095      		com r17
 1365 0510 0095      		com r16
 1366 0512 F094      		com r15
 1367 0514 E094      		com r14
 1368 0516 E11C      		adc r14,__zero_reg__
 1369 0518 F11C      		adc r15,__zero_reg__
 1370 051a 011D      		adc r16,__zero_reg__
 1371 051c 111D      		adc r17,__zero_reg__
 1372               	.LVL75:
 1373               	.L127:
 1374               	.LM233:
 1375 051e C801      		movw r24,r16
 1376 0520 B701      		movw r22,r14
 1377 0522 0E94 0000 		call debug_determine_digit_numbers
 1378               	.LM234:
 1379 0526 0E94 0000 		call debug_tx_number_digits
 1380               	/* epilogue start */
 1381               	.LM235:
 1382 052a 1F91      		pop r17
 1383 052c 0F91      		pop r16
 1384 052e FF90      		pop r15
 1385 0530 EF90      		pop r14
 1386               	.LVL76:
 1387 0532 0895      		ret
 1388               	.LFE35:
 1390               	.global	debug_tx_number_nl
 1392               	debug_tx_number_nl:
 1393               	.LFB36:
 1394               	.LM236:
 1395               	.LVL77:
 1396               	/* prologue: function */
 1397               	/* frame size = 0 */
 1398               	.LM237:
 1399 0534 0E94 0000 		call debug_tx_number
 1400               	.LVL78:
 1401               	.LM238:
 1402 0538 0E94 0000 		call debug_tx_nl
 1403               	/* epilogue start */
 1404               	.LM239:
 1405 053c 0895      		ret
 1406               	.LFE36:
 1408               	.global	debug_tx_number_sp
 1410               	debug_tx_number_sp:
 1411               	.LFB37:
 1412               	.LM240:
 1413               	.LVL79:
 1414               	/* prologue: function */
 1415               	/* frame size = 0 */
 1416               	.LM241:
 1417 053e 0E94 0000 		call debug_tx_number
 1418               	.LVL80:
 1419               	.LM242:
 1420 0542 0E94 0000 		call debug_tx_sp
 1421               	/* epilogue start */
 1422               	.LM243:
 1423 0546 0895      		ret
 1424               	.LFE37:
 1426               		.data
 1427               	.LC0:
 1428 0000 2C00      		.string	","
 1429               		.text
 1430               	.global	debug_tx_number_cm
 1432               	debug_tx_number_cm:
 1433               	.LFB38:
 1434               	.LM244:
 1435               	.LVL81:
 1436               	/* prologue: function */
 1437               	/* frame size = 0 */
 1438               	.LM245:
 1439 0548 0E94 0000 		call debug_tx_number
 1440               	.LVL82:
 1441               	.LM246:
 1442 054c 80E0      		ldi r24,lo8(.LC0)
 1443 054e 90E0      		ldi r25,hi8(.LC0)
 1444 0550 0E94 0000 		call debug_tx_text
 1445               	/* epilogue start */
 1446               	.LM247:
 1447 0554 0895      		ret
 1448               	.LFE38:
 1450               	.global	debug_tx_number_hex_nl
 1452               	debug_tx_number_hex_nl:
 1453               	.LFB39:
 1454               	.LM248:
 1455               	.LVL83:
 1456               	/* prologue: function */
 1457               	/* frame size = 0 */
 1458               	.LM249:
 1459 0556 0E94 0000 		call debug_tx_hex
 1460               	.LVL84:
 1461               	.LM250:
 1462 055a 0E94 0000 		call debug_tx_nl
 1463               	/* epilogue start */
 1464               	.LM251:
 1465 055e 0895      		ret
 1466               	.LFE39:
 1468               	.global	debug_tx_number_hex_sp
 1470               	debug_tx_number_hex_sp:
 1471               	.LFB40:
 1472               	.LM252:
 1473               	.LVL85:
 1474               	/* prologue: function */
 1475               	/* frame size = 0 */
 1476               	.LM253:
 1477 0560 0E94 0000 		call debug_tx_hex
 1478               	.LVL86:
 1479               	.LM254:
 1480 0564 0E94 0000 		call debug_tx_sp
 1481               	/* epilogue start */
 1482               	.LM255:
 1483 0568 0895      		ret
 1484               	.LFE40:
 1486               	.global	debug_tx_number_hex_cm
 1488               	debug_tx_number_hex_cm:
 1489               	.LFB41:
 1490               	.LM256:
 1491               	.LVL87:
 1492               	/* prologue: function */
 1493               	/* frame size = 0 */
 1494               	.LM257:
 1495 056a 0E94 0000 		call debug_tx_hex
 1496               	.LVL88:
 1497               	.LM258:
 1498 056e 80E0      		ldi r24,lo8(.LC0)
 1499 0570 90E0      		ldi r25,hi8(.LC0)
 1500 0572 0E94 0000 		call debug_tx_text
 1501               	/* epilogue start */
 1502               	.LM259:
 1503 0576 0895      		ret
 1504               	.LFE41:
 1506               	.global	debug_tx_parameter_nl
 1508               	debug_tx_parameter_nl:
 1509               	.LFB42:
 1510               	.LM260:
 1511               	.LVL89:
 1512 0578 EF92      		push r14
 1513 057a FF92      		push r15
 1514 057c 0F93      		push r16
 1515 057e 1F93      		push r17
 1516               	/* prologue: function */
 1517               	/* frame size = 0 */
 1518 0580 7A01      		movw r14,r20
 1519 0582 8B01      		movw r16,r22
 1520               	.LM261:
 1521 0584 0E94 0000 		call debug_tx_text
 1522               	.LVL90:
 1523               	.LM262:
 1524 0588 0E94 0000 		call debug_tx_sp
 1525               	.LM263:
 1526 058c C801      		movw r24,r16
 1527 058e B701      		movw r22,r14
 1528 0590 0E94 0000 		call debug_tx_number_nl
 1529               	/* epilogue start */
 1530               	.LM264:
 1531 0594 1F91      		pop r17
 1532 0596 0F91      		pop r16
 1533 0598 FF90      		pop r15
 1534 059a EF90      		pop r14
 1535               	.LVL91:
 1536 059c 0895      		ret
 1537               	.LFE42:
 1539               	.global	debug_tx_parameter_sp
 1541               	debug_tx_parameter_sp:
 1542               	.LFB43:
 1543               	.LM265:
 1544               	.LVL92:
 1545 059e EF92      		push r14
 1546 05a0 FF92      		push r15
 1547 05a2 0F93      		push r16
 1548 05a4 1F93      		push r17
 1549               	/* prologue: function */
 1550               	/* frame size = 0 */
 1551 05a6 7A01      		movw r14,r20
 1552 05a8 8B01      		movw r16,r22
 1553               	.LM266:
 1554 05aa 0E94 0000 		call debug_tx_text
 1555               	.LVL93:
 1556               	.LM267:
 1557 05ae 0E94 0000 		call debug_tx_sp
 1558               	.LM268:
 1559 05b2 C801      		movw r24,r16
 1560 05b4 B701      		movw r22,r14
 1561 05b6 0E94 0000 		call debug_tx_number_sp
 1562               	/* epilogue start */
 1563               	.LM269:
 1564 05ba 1F91      		pop r17
 1565 05bc 0F91      		pop r16
 1566 05be FF90      		pop r15
 1567 05c0 EF90      		pop r14
 1568               	.LVL94:
 1569 05c2 0895      		ret
 1570               	.LFE43:
 1572               	.global	debug_tx_parameter_cm
 1574               	debug_tx_parameter_cm:
 1575               	.LFB44:
 1576               	.LM270:
 1577               	.LVL95:
 1578 05c4 EF92      		push r14
 1579 05c6 FF92      		push r15
 1580 05c8 0F93      		push r16
 1581 05ca 1F93      		push r17
 1582               	/* prologue: function */
 1583               	/* frame size = 0 */
 1584 05cc 7A01      		movw r14,r20
 1585 05ce 8B01      		movw r16,r22
 1586               	.LM271:
 1587 05d0 0E94 0000 		call debug_tx_text
 1588               	.LVL96:
 1589               	.LM272:
 1590 05d4 0E94 0000 		call debug_tx_sp
 1591               	.LM273:
 1592 05d8 C801      		movw r24,r16
 1593 05da B701      		movw r22,r14
 1594 05dc 0E94 0000 		call debug_tx_number_cm
 1595               	/* epilogue start */
 1596               	.LM274:
 1597 05e0 1F91      		pop r17
 1598 05e2 0F91      		pop r16
 1599 05e4 FF90      		pop r15
 1600 05e6 EF90      		pop r14
 1601               	.LVL97:
 1602 05e8 0895      		ret
 1603               	.LFE44:
 1605               	.global	debug_tx_parameter_hex_nl
 1607               	debug_tx_parameter_hex_nl:
 1608               	.LFB45:
 1609               	.LM275:
 1610               	.LVL98:
 1611 05ea EF92      		push r14
 1612 05ec FF92      		push r15
 1613 05ee 0F93      		push r16
 1614 05f0 1F93      		push r17
 1615               	/* prologue: function */
 1616               	/* frame size = 0 */
 1617 05f2 7A01      		movw r14,r20
 1618 05f4 8B01      		movw r16,r22
 1619               	.LM276:
 1620 05f6 0E94 0000 		call debug_tx_text
 1621               	.LVL99:
 1622               	.LM277:
 1623 05fa 0E94 0000 		call debug_tx_sp
 1624               	.LM278:
 1625 05fe C801      		movw r24,r16
 1626 0600 B701      		movw r22,r14
 1627 0602 0E94 0000 		call debug_tx_number_hex_nl
 1628               	/* epilogue start */
 1629               	.LM279:
 1630 0606 1F91      		pop r17
 1631 0608 0F91      		pop r16
 1632 060a FF90      		pop r15
 1633 060c EF90      		pop r14
 1634               	.LVL100:
 1635 060e 0895      		ret
 1636               	.LFE45:
 1638               	.global	debug_tx_parameter_hex_sp
 1640               	debug_tx_parameter_hex_sp:
 1641               	.LFB46:
 1642               	.LM280:
 1643               	.LVL101:
 1644 0610 EF92      		push r14
 1645 0612 FF92      		push r15
 1646 0614 0F93      		push r16
 1647 0616 1F93      		push r17
 1648               	/* prologue: function */
 1649               	/* frame size = 0 */
 1650 0618 7A01      		movw r14,r20
 1651 061a 8B01      		movw r16,r22
 1652               	.LM281:
 1653 061c 0E94 0000 		call debug_tx_text
 1654               	.LVL102:
 1655               	.LM282:
 1656 0620 0E94 0000 		call debug_tx_sp
 1657               	.LM283:
 1658 0624 C801      		movw r24,r16
 1659 0626 B701      		movw r22,r14
 1660 0628 0E94 0000 		call debug_tx_number_hex_sp
 1661               	/* epilogue start */
 1662               	.LM284:
 1663 062c 1F91      		pop r17
 1664 062e 0F91      		pop r16
 1665 0630 FF90      		pop r15
 1666 0632 EF90      		pop r14
 1667               	.LVL103:
 1668 0634 0895      		ret
 1669               	.LFE46:
 1671               	.global	Debug_tx_parameter_hex_cm
 1673               	Debug_tx_parameter_hex_cm:
 1674               	.LFB47:
 1675               	.LM285:
 1676               	.LVL104:
 1677 0636 EF92      		push r14
 1678 0638 FF92      		push r15
 1679 063a 0F93      		push r16
 1680 063c 1F93      		push r17
 1681               	/* prologue: function */
 1682               	/* frame size = 0 */
 1683 063e 7A01      		movw r14,r20
 1684 0640 8B01      		movw r16,r22
 1685               	.LM286:
 1686 0642 0E94 0000 		call debug_tx_text
 1687               	.LVL105:
 1688               	.LM287:
 1689 0646 0E94 0000 		call debug_tx_sp
 1690               	.LM288:
 1691 064a C801      		movw r24,r16
 1692 064c B701      		movw r22,r14
 1693 064e 0E94 0000 		call debug_tx_number_hex_cm
 1694               	/* epilogue start */
 1695               	.LM289:
 1696 0652 1F91      		pop r17
 1697 0654 0F91      		pop r16
 1698 0656 FF90      		pop r15
 1699 0658 EF90      		pop r14
 1700               	.LVL106:
 1701 065a 0895      		ret
 1702               	.LFE47:
 1704               	.global	debug_buf_get
 1706               	debug_buf_get:
 1707               	.LFB48:
 1708               	.LM290:
 1709               	.LVL107:
 1710               	/* prologue: function */
 1711               	/* frame size = 0 */
 1712               	.LM291:
 1713 065c E0E0      		ldi r30,lo8(debug)
 1714 065e F0E0      		ldi r31,hi8(debug)
 1715 0660 E80F      		add r30,r24
 1716 0662 F11D      		adc r31,__zero_reg__
 1717 0664 8381      		ldd r24,Z+3
 1718               	.LVL108:
 1719               	/* epilogue start */
 1720               	.LM292:
 1721 0666 0895      		ret
 1722               	.LFE48:
 1724               	.global	debug_buf_index_get
 1726               	debug_buf_index_get:
 1727               	.LFB49:
 1728               	.LM293:
 1729               	/* prologue: function */
 1730               	/* frame size = 0 */
 1731               	.LM294:
 1732 0668 8091 0000 		lds r24,debug+35
 1733               	/* epilogue start */
 1734               	.LM295:
 1735 066c 0895      		ret
 1736               	.LFE49:
 1738               	.global	debug_flush_buf
 1740               	debug_flush_buf:
 1741               	.LFB50:
 1742               	.LM296:
 1743               	/* prologue: function */
 1744               	/* frame size = 0 */
 1745               	.LM297:
 1746 066e 80E0      		ldi r24,lo8(0)
 1747 0670 90E0      		ldi r25,hi8(0)
 1748               	.L158:
 1749               	.LBB110:
 1750               	.LM298:
 1751 0672 FC01      		movw r30,r24
 1752 0674 E050      		subi r30,lo8(-(debug))
 1753 0676 F040      		sbci r31,hi8(-(debug))
 1754 0678 1382      		std Z+3,__zero_reg__
 1755 067a 0196      		adiw r24,1
 1756               	.LM299:
 1757 067c 8032      		cpi r24,32
 1758 067e 9105      		cpc r25,__zero_reg__
 1759 0680 01F4      		brne .L158
 1760               	.LBE110:
 1761               	.LM300:
 1762 0682 1092 0000 		sts debug+35,__zero_reg__
 1763               	/* epilogue start */
 1764               	.LM301:
 1765 0686 0895      		ret
 1766               	.LFE50:
 1768               	.global	debug_databsy_get
 1770               	debug_databsy_get:
 1771               	.LFB51:
 1772               	.LM302:
 1773               	/* prologue: function */
 1774               	/* frame size = 0 */
 1775               	.LM303:
 1776 0688 8091 0000 		lds r24,debug+2
 1777               	/* epilogue start */
 1778               	.LM304:
 1779 068c 0895      		ret
 1780               	.LFE51:
 1782               	.global	debug_init
 1784               	debug_init:
 1785               	.LFB52:
 1786               	.LM305:
 1787               	/* prologue: function */
 1788               	/* frame size = 0 */
 1789               	.LM306:
 1790 068e 0E94 0000 		call debug_struct_init
 1791               	.LM307:
 1792 0692 0E94 0000 		call debug_timings_init
 1793               	.LM308:
 1794 0696 0E94 0000 		call debug_gpio_init
 1795               	/* epilogue start */
 1796               	.LM309:
 1797 069a 0895      		ret
 1798               	.LFE52:
 1800               	.global	__vector_5
 1802               	__vector_5:
 1803               	.LFB53:
 1804               	.LM310:
 1805 069c 1F92      		push __zero_reg__
 1806 069e 0F92      		push r0
 1807 06a0 0FB6      		in r0,__SREG__
 1808 06a2 0F92      		push r0
 1809 06a4 1124      		clr __zero_reg__
 1810 06a6 2F93      		push r18
 1811 06a8 3F93      		push r19
 1812 06aa 4F93      		push r20
 1813 06ac 5F93      		push r21
 1814 06ae 6F93      		push r22
 1815 06b0 7F93      		push r23
 1816 06b2 8F93      		push r24
 1817 06b4 9F93      		push r25
 1818 06b6 AF93      		push r26
 1819 06b8 BF93      		push r27
 1820 06ba EF93      		push r30
 1821 06bc FF93      		push r31
 1822               	/* prologue: Signal */
 1823               	/* frame size = 0 */
 1824               	.LM311:
 1825 06be 81E0      		ldi r24,lo8(1)
 1826 06c0 8093 0000 		sts debug+2,r24
 1827               	.LM312:
 1828 06c4 0E94 0000 		call debug_rx_byte
 1829 06c8 982F      		mov r25,r24
 1830               	.LVL109:
 1831               	.LM313:
 1832 06ca 8091 0000 		lds r24,debug
 1833 06ce 8823      		tst r24
 1834 06d0 01F4      		brne .L168
 1835               	.LM314:
 1836 06d2 E091 0000 		lds r30,debug+35
 1837 06d6 F0E0      		ldi r31,lo8(0)
 1838 06d8 E050      		subi r30,lo8(-(debug))
 1839 06da F040      		sbci r31,hi8(-(debug))
 1840 06dc 9383      		std Z+3,r25
 1841               	.LM315:
 1842 06de 8091 0000 		lds r24,debug+35
 1843 06e2 8F5F      		subi r24,lo8(-(1))
 1844 06e4 8093 0000 		sts debug+35,r24
 1845               	.LM316:
 1846 06e8 8091 0000 		lds r24,debug+35
 1847 06ec 8132      		cpi r24,lo8(33)
 1848 06ee 00F0      		brlo .L167
 1849               	.LM317:
 1850 06f0 1092 0000 		sts debug+35,__zero_reg__
 1851               	.L167:
 1852               	.LM318:
 1853 06f4 0E94 0000 		call debug_timer_start
 1854               	.LVL110:
 1855               	.L168:
 1856               	/* epilogue start */
 1857               	.LM319:
 1858 06f8 FF91      		pop r31
 1859 06fa EF91      		pop r30
 1860 06fc BF91      		pop r27
 1861 06fe AF91      		pop r26
 1862 0700 9F91      		pop r25
 1863               	.LVL111:
 1864 0702 8F91      		pop r24
 1865 0704 7F91      		pop r23
 1866 0706 6F91      		pop r22
 1867 0708 5F91      		pop r21
 1868 070a 4F91      		pop r20
 1869 070c 3F91      		pop r19
 1870 070e 2F91      		pop r18
 1871 0710 0F90      		pop r0
 1872 0712 0FBE      		out __SREG__,r0
 1873 0714 0F90      		pop r0
 1874 0716 1F90      		pop __zero_reg__
 1875 0718 1895      		reti
 1876               	.LFE53:
 1878               	.global	__vector_13
 1880               	__vector_13:
 1881               	.LFB54:
 1882               	.LM320:
 1883 071a 1F92      		push __zero_reg__
 1884 071c 0F92      		push r0
 1885 071e 0FB6      		in r0,__SREG__
 1886 0720 0F92      		push r0
 1887 0722 1124      		clr __zero_reg__
 1888               	/* prologue: Signal */
 1889               	/* frame size = 0 */
 1890               	.LBB111:
 1891               	.LBB112:
 1892               	.LM321:
 1893 0724 1092 6E00 		sts 110,__zero_reg__
 1894               	.LM322:
 1895 0728 15BC      		out 69-32,__zero_reg__
 1896               	.LM323:
 1897 072a 16BC      		out 70-32,__zero_reg__
 1898               	.LBE112:
 1899               	.LBE111:
 1900               	.LM324:
 1901 072c 599A      		sbi 43-32,1
 1902               	.LM325:
 1903 072e 5998      		cbi 43-32,1
 1904               	.LM326:
 1905 0730 1092 0000 		sts debug+2,__zero_reg__
 1906               	/* epilogue start */
 1907               	.LM327:
 1908 0734 0F90      		pop r0
 1909 0736 0FBE      		out __SREG__,r0
 1910 0738 0F90      		pop r0
 1911 073a 1F90      		pop __zero_reg__
 1912 073c 1895      		reti
 1913               	.LFE54:
 1915               	.global	TIM0_BAUD_9600
 1916               		.data
 1919               	TIM0_BAUD_9600:
 1920 0002 CE04      		.word	1230
 1921 0004 9C04      		.word	1180
 1922 0006 4E02      		.word	590
 1923               	.global	TIM0_BAUD_19200
 1926               	TIM0_BAUD_19200:
 1927 0008 4E02      		.word	590
 1928 000a 3A02      		.word	570
 1929 000c E600      		.word	230
 1930               	.global	TIM0_BAUD_38400
 1933               	TIM0_BAUD_38400:
 1934 000e 2000      		.word	32
 1935 0010 2400      		.word	36
 1936 0012 0A00      		.word	10
 1937               		.comm debug,45,1
 2346               	.Letext0:
DEFINED SYMBOLS
                            *ABS*:00000000 debug.c
C:\Users\farid\AppData\Local\Temp/ccCSf4jK.s:2      *ABS*:0000003f __SREG__
C:\Users\farid\AppData\Local\Temp/ccCSf4jK.s:3      *ABS*:0000003e __SP_H__
C:\Users\farid\AppData\Local\Temp/ccCSf4jK.s:4      *ABS*:0000003d __SP_L__
C:\Users\farid\AppData\Local\Temp/ccCSf4jK.s:5      *ABS*:00000034 __CCP__
C:\Users\farid\AppData\Local\Temp/ccCSf4jK.s:6      *ABS*:00000000 __tmp_reg__
C:\Users\farid\AppData\Local\Temp/ccCSf4jK.s:7      *ABS*:00000001 __zero_reg__
C:\Users\farid\AppData\Local\Temp/ccCSf4jK.s:18     .text:00000000 debug_struct_init
                            *COM*:0000002d debug
C:\Users\farid\AppData\Local\Temp/ccCSf4jK.s:68     .text:00000038 debug_timings_init
C:\Users\farid\AppData\Local\Temp/ccCSf4jK.s:109    .text:0000005e debug_timer_start
C:\Users\farid\AppData\Local\Temp/ccCSf4jK.s:139    .text:00000078 debug_timer_stop
C:\Users\farid\AppData\Local\Temp/ccCSf4jK.s:157    .text:00000082 debug_gpio_init
C:\Users\farid\AppData\Local\Temp/ccCSf4jK.s:181    .text:00000090 debug_tx_high
C:\Users\farid\AppData\Local\Temp/ccCSf4jK.s:195    .text:00000094 debug_tx_low
C:\Users\farid\AppData\Local\Temp/ccCSf4jK.s:209    .text:00000098 debug_tx_set
C:\Users\farid\AppData\Local\Temp/ccCSf4jK.s:237    .text:000000a4 debug_rx_get
C:\Users\farid\AppData\Local\Temp/ccCSf4jK.s:258    .text:000000b6 debug_delay
C:\Users\farid\AppData\Local\Temp/ccCSf4jK.s:287    .text:000000cc debug_delay_index_0
C:\Users\farid\AppData\Local\Temp/ccCSf4jK.s:1933   .data:0000000e TIM0_BAUD_38400
C:\Users\farid\AppData\Local\Temp/ccCSf4jK.s:320    .text:000000e8 debug_delay_index_1
C:\Users\farid\AppData\Local\Temp/ccCSf4jK.s:353    .text:00000104 debug_delay_index_2
C:\Users\farid\AppData\Local\Temp/ccCSf4jK.s:386    .text:00000120 debug_tx_byte
C:\Users\farid\AppData\Local\Temp/ccCSf4jK.s:548    .text:000001c8 debug_rx_byte
C:\Users\farid\AppData\Local\Temp/ccCSf4jK.s:764    .text:00000284 debug_rx_byte_get
C:\Users\farid\AppData\Local\Temp/ccCSf4jK.s:778    .text:0000028a debug_rx_byte_clear
C:\Users\farid\AppData\Local\Temp/ccCSf4jK.s:792    .text:00000290 debug_rx_byte_set
C:\Users\farid\AppData\Local\Temp/ccCSf4jK.s:807    .text:00000296 debug_tx_hex
C:\Users\farid\AppData\Local\Temp/ccCSf4jK.s:948    .text:0000034a debug_tx_bin
C:\Users\farid\AppData\Local\Temp/ccCSf4jK.s:1068   .text:000003f6 debug_tx_nl
C:\Users\farid\AppData\Local\Temp/ccCSf4jK.s:1086   .text:00000404 debug_tx_sp
C:\Users\farid\AppData\Local\Temp/ccCSf4jK.s:1101   .text:0000040c debug_tx_cm
C:\Users\farid\AppData\Local\Temp/ccCSf4jK.s:1116   .text:00000414 debug_tx_text
C:\Users\farid\AppData\Local\Temp/ccCSf4jK.s:1157   .text:0000043a debug_tx_text_nl
C:\Users\farid\AppData\Local\Temp/ccCSf4jK.s:1175   .text:00000444 debug_tx_text_sp
C:\Users\farid\AppData\Local\Temp/ccCSf4jK.s:1193   .text:0000044e debug_tx_text_cm
C:\Users\farid\AppData\Local\Temp/ccCSf4jK.s:1211   .text:00000458 debug_determine_digit_numbers
C:\Users\farid\AppData\Local\Temp/ccCSf4jK.s:1301   .text:000004d6 debug_tx_number_digits
C:\Users\farid\AppData\Local\Temp/ccCSf4jK.s:1344   .text:000004f8 debug_tx_number
C:\Users\farid\AppData\Local\Temp/ccCSf4jK.s:1392   .text:00000534 debug_tx_number_nl
C:\Users\farid\AppData\Local\Temp/ccCSf4jK.s:1410   .text:0000053e debug_tx_number_sp
C:\Users\farid\AppData\Local\Temp/ccCSf4jK.s:1432   .text:00000548 debug_tx_number_cm
C:\Users\farid\AppData\Local\Temp/ccCSf4jK.s:1452   .text:00000556 debug_tx_number_hex_nl
C:\Users\farid\AppData\Local\Temp/ccCSf4jK.s:1470   .text:00000560 debug_tx_number_hex_sp
C:\Users\farid\AppData\Local\Temp/ccCSf4jK.s:1488   .text:0000056a debug_tx_number_hex_cm
C:\Users\farid\AppData\Local\Temp/ccCSf4jK.s:1508   .text:00000578 debug_tx_parameter_nl
C:\Users\farid\AppData\Local\Temp/ccCSf4jK.s:1541   .text:0000059e debug_tx_parameter_sp
C:\Users\farid\AppData\Local\Temp/ccCSf4jK.s:1574   .text:000005c4 debug_tx_parameter_cm
C:\Users\farid\AppData\Local\Temp/ccCSf4jK.s:1607   .text:000005ea debug_tx_parameter_hex_nl
C:\Users\farid\AppData\Local\Temp/ccCSf4jK.s:1640   .text:00000610 debug_tx_parameter_hex_sp
C:\Users\farid\AppData\Local\Temp/ccCSf4jK.s:1673   .text:00000636 Debug_tx_parameter_hex_cm
C:\Users\farid\AppData\Local\Temp/ccCSf4jK.s:1706   .text:0000065c debug_buf_get
C:\Users\farid\AppData\Local\Temp/ccCSf4jK.s:1726   .text:00000668 debug_buf_index_get
C:\Users\farid\AppData\Local\Temp/ccCSf4jK.s:1740   .text:0000066e debug_flush_buf
C:\Users\farid\AppData\Local\Temp/ccCSf4jK.s:1770   .text:00000688 debug_databsy_get
C:\Users\farid\AppData\Local\Temp/ccCSf4jK.s:1784   .text:0000068e debug_init
C:\Users\farid\AppData\Local\Temp/ccCSf4jK.s:1802   .text:0000069c __vector_5
C:\Users\farid\AppData\Local\Temp/ccCSf4jK.s:1880   .text:0000071a __vector_13
C:\Users\farid\AppData\Local\Temp/ccCSf4jK.s:1919   .data:00000002 TIM0_BAUD_9600
C:\Users\farid\AppData\Local\Temp/ccCSf4jK.s:1926   .data:00000008 TIM0_BAUD_19200

UNDEFINED SYMBOLS
__udivmodsi4
__do_copy_data
__do_clear_bss
