   1               		.file	"debug.c"
   2               	__SREG__ = 0x3f
   3               	__SP_H__ = 0x3e
   4               	__SP_L__ = 0x3d
   5               	__CCP__  = 0x34
   6               	__tmp_reg__ = 0
   7               	__zero_reg__ = 1
  15               	.Ltext0:
  16               	.global	debug_struct_init
  18               	debug_struct_init:
  19               	.LFB6:
  20               	.LM1:
  21               	/* prologue: function */
  22               	/* frame size = 0 */
  23               	.LM2:
  24 0000 1092 0000 		sts debug,__zero_reg__
  25               	.LM3:
  26 0004 1092 0000 		sts debug+1,__zero_reg__
  27 0008 E0E0      		ldi r30,lo8(debug+2)
  28 000a F0E0      		ldi r31,hi8(debug+2)
  29               	.L2:
  30               	.LBB62:
  31               	.LM4:
  32 000c 1192      		st Z+,__zero_reg__
  33               	.LM5:
  34 000e 80E0      		ldi r24,hi8(debug+10)
  35 0010 E030      		cpi r30,lo8(debug+10)
  36 0012 F807      		cpc r31,r24
  37 0014 01F4      		brne .L2
  38               	.LBE62:
  39               	.LM6:
  40 0016 1082      		st Z,__zero_reg__
  41               	.LM7:
  42 0018 1282      		std Z+2,__zero_reg__
  43 001a 1182      		std Z+1,__zero_reg__
  44               	.LM8:
  45 001c 1482      		std Z+4,__zero_reg__
  46 001e 1382      		std Z+3,__zero_reg__
  47               	.LM9:
  48 0020 1582      		std Z+5,__zero_reg__
  49               	.LM10:
  50 0022 1682      		std Z+6,__zero_reg__
  51               	/* epilogue start */
  52               	.LM11:
  53 0024 0895      		ret
  54               	.LFE6:
  56               	.global	debug_timings_init
  58               	debug_timings_init:
  59               	.LFB7:
  60               	.LM12:
  61               	/* prologue: function */
  62               	/* frame size = 0 */
  63               	.LM13:
  64 0026 1092 8000 		sts 128,__zero_reg__
  65               	.LM14:
  66 002a 81E0      		ldi r24,lo8(1)
  67 002c 8093 8100 		sts 129,r24
  68               	.LM15:
  69 0030 1092 8200 		sts 130,__zero_reg__
  70               	.LM16:
  71 0034 1092 6F00 		sts 111,__zero_reg__
  72               	.LM17:
  73 0038 16BA      		out 54-32,__zero_reg__
  74               	.LM18:
  75 003a E8E6      		ldi r30,lo8(104)
  76 003c F0E0      		ldi r31,hi8(104)
  77 003e 8081      		ld r24,Z
  78 0040 8460      		ori r24,lo8(4)
  79 0042 8083      		st Z,r24
  80               	.LM19:
  81 0044 EDE6      		ldi r30,lo8(109)
  82 0046 F0E0      		ldi r31,hi8(109)
  83 0048 8081      		ld r24,Z
  84 004a 8062      		ori r24,lo8(32)
  85 004c 8083      		st Z,r24
  86               	.LM20:
  87               	/* #APP */
  88               	 ;  91 "debug.c" 1
  89 004e 7894      		sei
  90               	 ;  0 "" 2
  91               	/* epilogue start */
  92               	.LM21:
  93               	/* #NOAPP */
  94 0050 0895      		ret
  95               	.LFE7:
  97               	.global	debug_gpio_init
  99               	debug_gpio_init:
 100               	.LFB8:
 101               	.LM22:
 102               	/* prologue: function */
 103               	/* frame size = 0 */
 104               	.LM23:
 105 0052 569A      		sbi 42-32,6
 106               	.LM24:
 107 0054 5E9A      		sbi 43-32,6
 108               	.LM25:
 109 0056 5598      		cbi 42-32,5
 110               	.LM26:
 111 0058 5D9A      		sbi 43-32,5
 112               	/* epilogue start */
 113               	.LM27:
 114 005a 0895      		ret
 115               	.LFE8:
 117               	.global	debug_tx_high
 119               	debug_tx_high:
 120               	.LFB9:
 121               	.LM28:
 122               	/* prologue: function */
 123               	/* frame size = 0 */
 124               	.LM29:
 125 005c 5E9A      		sbi 43-32,6
 126               	/* epilogue start */
 127               	.LM30:
 128 005e 0895      		ret
 129               	.LFE9:
 131               	.global	debug_tx_low
 133               	debug_tx_low:
 134               	.LFB10:
 135               	.LM31:
 136               	/* prologue: function */
 137               	/* frame size = 0 */
 138               	.LM32:
 139 0060 5E98      		cbi 43-32,6
 140               	/* epilogue start */
 141               	.LM33:
 142 0062 0895      		ret
 143               	.LFE10:
 145               	.global	debug_tx_set
 147               	debug_tx_set:
 148               	.LFB11:
 149               	.LM34:
 150               	.LVL0:
 151               	/* prologue: function */
 152               	/* frame size = 0 */
 153               	.LM35:
 154 0064 8130      		cpi r24,lo8(1)
 155 0066 01F4      		brne .L14
 156               	.LBB63:
 157               	.LBB64:
 158               	.LM36:
 159 0068 5E9A      		sbi 43-32,6
 160 006a 0895      		ret
 161               	.L14:
 162               	.LBE64:
 163               	.LBE63:
 164               	.LBB65:
 165               	.LBB66:
 166               	.LM37:
 167 006c 5E98      		cbi 43-32,6
 168 006e 0895      		ret
 169               	.LBE66:
 170               	.LBE65:
 171               	.LFE11:
 173               	.global	debug_rx_get
 175               	debug_rx_get:
 176               	.LFB12:
 177               	.LM38:
 178               	/* prologue: function */
 179               	/* frame size = 0 */
 180               	.LM39:
 181 0070 89B1      		in r24,41-32
 182 0072 90E0      		ldi r25,lo8(0)
 183 0074 25E0      		ldi r18,5
 184 0076 9695      	1:	lsr r25
 185 0078 8795      		ror r24
 186 007a 2A95      		dec r18
 187 007c 01F4      		brne 1b
 188               	.LM40:
 189 007e 8170      		andi r24,lo8(1)
 190               	/* epilogue start */
 191 0080 0895      		ret
 192               	.LFE12:
 194               	.global	debug_delay
 196               	debug_delay:
 197               	.LFB13:
 198               	.LM41:
 199               	.LVL1:
 200               	/* prologue: function */
 201               	/* frame size = 0 */
 202 0082 9C01      		movw r18,r24
 203               	.LM42:
 204 0084 1092 8500 		sts (132)+1,__zero_reg__
 205 0088 1092 8400 		sts 132,__zero_reg__
 206               	.LVL2:
 207               	.L20:
 208               	.LM43:
 209 008c 8091 8400 		lds r24,132
 210 0090 9091 8500 		lds r25,(132)+1
 211 0094 8217      		cp r24,r18
 212 0096 9307      		cpc r25,r19
 213 0098 00F0      		brlo .L20
 214               	/* epilogue start */
 215               	.LM44:
 216 009a 0895      		ret
 217               	.LFE13:
 219               	.global	debug_tx_byte
 221               	debug_tx_byte:
 222               	.LFB14:
 223               	.LM45:
 224               	.LVL3:
 225 009c DF93      		push r29
 226 009e CF93      		push r28
 227 00a0 CDB7      		in r28,__SP_L__
 228 00a2 DEB7      		in r29,__SP_H__
 229 00a4 2A97      		sbiw r28,10
 230 00a6 0FB6      		in __tmp_reg__,__SREG__
 231 00a8 F894      		cli
 232 00aa DEBF      		out __SP_H__,r29
 233 00ac 0FBE      		out __SREG__,__tmp_reg__
 234 00ae CDBF      		out __SP_L__,r28
 235               	/* prologue: function */
 236               	/* frame size = 10 */
 237               	.LM46:
 238 00b0 FE01      		movw r30,r28
 239 00b2 3196      		adiw r30,1
 240 00b4 9AE0      		ldi r25,lo8(10)
 241 00b6 DF01      		movw r26,r30
 242 00b8 1D92      		st X+,__zero_reg__
 243 00ba 9A95      	        dec r25
 244 00bc 01F4      		brne .-6
 245 00be 91E0      		ldi r25,lo8(1)
 246 00c0 9A87      		std Y+10,r25
 247 00c2 FE01      		movw r30,r28
 248 00c4 3296      		adiw r30,2
 249 00c6 20E0      		ldi r18,lo8(0)
 250 00c8 30E0      		ldi r19,hi8(0)
 251               	.LBB67:
 252               	.LM47:
 253 00ca 482F      		mov r20,r24
 254 00cc 50E0      		ldi r21,lo8(0)
 255               	.LVL4:
 256               	.LM48:
 257 00ce 61E0      		ldi r22,lo8(1)
 258               	.LVL5:
 259               	.L26:
 260               	.LM49:
 261 00d0 CA01      		movw r24,r20
 262 00d2 022E      		mov r0,r18
 263 00d4 00C0      		rjmp 2f
 264 00d6 9595      	1:	asr r25
 265 00d8 8795      		ror r24
 266 00da 0A94      	2:	dec r0
 267 00dc 02F4      		brpl 1b
 268 00de 80FF      		sbrs r24,0
 269 00e0 00C0      		rjmp .L24
 270               	.LM50:
 271 00e2 6083      		st Z,r22
 272 00e4 00C0      		rjmp .L25
 273               	.L24:
 274               	.LM51:
 275 00e6 1082      		st Z,__zero_reg__
 276               	.L25:
 277 00e8 2F5F      		subi r18,lo8(-(1))
 278 00ea 3F4F      		sbci r19,hi8(-(1))
 279 00ec 3196      		adiw r30,1
 280               	.LM52:
 281 00ee 2830      		cpi r18,8
 282 00f0 3105      		cpc r19,__zero_reg__
 283 00f2 01F4      		brne .L26
 284               	.LBE67:
 285               	.LM53:
 286 00f4 2FB7      		in r18,__SREG__
 287               	.LM54:
 288 00f6 27FF      		sbrs r18,7
 289 00f8 00C0      		rjmp .L27
 290               	.LM55:
 291               	/* #APP */
 292               	 ;  159 "debug.c" 1
 293 00fa F894      		cli
 294               	 ;  0 "" 2
 295               	/* #NOAPP */
 296               	.L27:
 297 00fc FE01      		movw r30,r28
 298 00fe 3196      		adiw r30,1
 299               	.LBB68:
 300               	.LM56:
 301 0100 AE01      		movw r20,r28
 302               	.LVL6:
 303 0102 455F      		subi r20,lo8(-(11))
 304 0104 5F4F      		sbci r21,hi8(-(11))
 305               	.L31:
 306               	.LBB69:
 307               	.LBB70:
 308               	.LM57:
 309 0106 8081      		ld r24,Z
 310 0108 8130      		cpi r24,lo8(1)
 311 010a 01F4      		brne .L28
 312               	.LBB71:
 313               	.LBB72:
 314               	.LM58:
 315 010c 5E9A      		sbi 43-32,6
 316 010e 00C0      		rjmp .L29
 317               	.L28:
 318               	.LBE72:
 319               	.LBE71:
 320               	.LBB73:
 321               	.LBB74:
 322               	.LM59:
 323 0110 5E98      		cbi 43-32,6
 324               	.L29:
 325               	.LBE74:
 326               	.LBE73:
 327               	.LBE70:
 328               	.LBE69:
 329               	.LBB75:
 330               	.LBB76:
 331               	.LM60:
 332 0112 1092 8500 		sts (132)+1,__zero_reg__
 333 0116 1092 8400 		sts 132,__zero_reg__
 334               	.L30:
 335               	.LM61:
 336 011a 8091 8400 		lds r24,132
 337 011e 9091 8500 		lds r25,(132)+1
 338 0122 8E5C      		subi r24,lo8(1230)
 339 0124 9440      		sbci r25,hi8(1230)
 340 0126 00F0      		brlo .L30
 341 0128 3196      		adiw r30,1
 342               	.LBE76:
 343               	.LBE75:
 344               	.LM62:
 345 012a E417      		cp r30,r20
 346 012c F507      		cpc r31,r21
 347 012e 01F4      		brne .L31
 348               	.LBE68:
 349               	.LM63:
 350 0130 27FF      		sbrs r18,7
 351 0132 00C0      		rjmp .L33
 352               	.LM64:
 353               	/* #APP */
 354               	 ;  166 "debug.c" 1
 355 0134 7894      		sei
 356               	 ;  0 "" 2
 357               	/* #NOAPP */
 358               	.L33:
 359               	/* epilogue start */
 360               	.LM65:
 361 0136 2A96      		adiw r28,10
 362 0138 0FB6      		in __tmp_reg__,__SREG__
 363 013a F894      		cli
 364 013c DEBF      		out __SP_H__,r29
 365 013e 0FBE      		out __SREG__,__tmp_reg__
 366 0140 CDBF      		out __SP_L__,r28
 367 0142 CF91      		pop r28
 368 0144 DF91      		pop r29
 369 0146 0895      		ret
 370               	.LFE14:
 372               	.global	debug_rx_byte
 374               	debug_rx_byte:
 375               	.LFB15:
 376               	.LM66:
 377               	/* prologue: function */
 378               	/* frame size = 0 */
 379               	.LM67:
 380 0148 8091 0000 		lds r24,debug+1
 381               	/* epilogue start */
 382               	.LM68:
 383 014c 0895      		ret
 384               	.LFE15:
 386               	.global	debug_rx_byte_clear
 388               	debug_rx_byte_clear:
 389               	.LFB16:
 390               	.LM69:
 391               	/* prologue: function */
 392               	/* frame size = 0 */
 393               	.LM70:
 394 014e 1092 0000 		sts debug+1,__zero_reg__
 395               	/* epilogue start */
 396               	.LM71:
 397 0152 0895      		ret
 398               	.LFE16:
 400               	.global	debug_rx_byte_set
 402               	debug_rx_byte_set:
 403               	.LFB17:
 404               	.LM72:
 405               	.LVL7:
 406               	/* prologue: function */
 407               	/* frame size = 0 */
 408               	.LM73:
 409 0154 8093 0000 		sts debug+1,r24
 410               	/* epilogue start */
 411               	.LM74:
 412 0158 0895      		ret
 413               	.LFE17:
 415               	.global	debug_tx_hex
 417               	debug_tx_hex:
 418               	.LFB18:
 419               	.LM75:
 420               	.LVL8:
 421 015a BF92      		push r11
 422 015c CF92      		push r12
 423 015e DF92      		push r13
 424 0160 EF92      		push r14
 425 0162 FF92      		push r15
 426 0164 0F93      		push r16
 427 0166 1F93      		push r17
 428 0168 CF93      		push r28
 429 016a DF93      		push r29
 430               	/* prologue: function */
 431               	/* frame size = 0 */
 432 016c 7B01      		movw r14,r22
 433 016e 8C01      		movw r16,r24
 434               	.LM76:
 435 0170 8FEF      		ldi r24,lo8(255)
 436 0172 E816      		cp r14,r24
 437 0174 F104      		cpc r15,__zero_reg__
 438 0176 0105      		cpc r16,__zero_reg__
 439 0178 1105      		cpc r17,__zero_reg__
 440 017a 01F0      		breq .+2
 441 017c 00F4      		brsh .L44
 442               	.LVL9:
 443 017e C8E0      		ldi r28,lo8(8)
 444 0180 D0E0      		ldi r29,hi8(8)
 445               	.LVL10:
 446 0182 52E0      		ldi r21,lo8(2)
 447 0184 C52E      		mov r12,r21
 448 0186 D12C      		mov r13,__zero_reg__
 449               	.LVL11:
 450 0188 00C0      		rjmp .L45
 451               	.LVL12:
 452               	.L44:
 453               	.LM77:
 454 018a 80E0      		ldi r24,lo8(65536)
 455 018c E816      		cp r14,r24
 456 018e 80E0      		ldi r24,hi8(65536)
 457 0190 F806      		cpc r15,r24
 458 0192 81E0      		ldi r24,hlo8(65536)
 459 0194 0807      		cpc r16,r24
 460 0196 80E0      		ldi r24,hhi8(65536)
 461 0198 1807      		cpc r17,r24
 462 019a 00F0      		brlo .L46
 463 019c C0E2      		ldi r28,lo8(32)
 464 019e D0E0      		ldi r29,hi8(32)
 465               	.LVL13:
 466 01a0 48E0      		ldi r20,lo8(8)
 467 01a2 C42E      		mov r12,r20
 468 01a4 D12C      		mov r13,__zero_reg__
 469               	.LVL14:
 470 01a6 00C0      		rjmp .L45
 471               	.LVL15:
 472               	.L46:
 473 01a8 C0E1      		ldi r28,lo8(16)
 474 01aa D0E0      		ldi r29,hi8(16)
 475               	.LVL16:
 476 01ac 34E0      		ldi r19,lo8(4)
 477 01ae C32E      		mov r12,r19
 478 01b0 D12C      		mov r13,__zero_reg__
 479               	.LVL17:
 480               	.L45:
 481               	.LM78:
 482 01b2 80E3      		ldi r24,lo8(48)
 483 01b4 0E94 0000 		call debug_tx_byte
 484               	.LM79:
 485 01b8 88E7      		ldi r24,lo8(120)
 486 01ba 0E94 0000 		call debug_tx_byte
 487 01be BB24      		clr r11
 488               	.LVL18:
 489 01c0 00C0      		rjmp .L47
 490               	.LVL19:
 491               	.L50:
 492               	.LBB77:
 493               	.LM80:
 494 01c2 2497      		sbiw r28,4
 495               	.LM81:
 496 01c4 D801      		movw r26,r16
 497 01c6 C701      		movw r24,r14
 498               	.LVL20:
 499 01c8 0C2E      		mov r0,r28
 500 01ca 00C0      		rjmp 2f
 501 01cc B695      	1:	lsr r27
 502 01ce A795      		ror r26
 503 01d0 9795      		ror r25
 504 01d2 8795      		ror r24
 505 01d4 0A94      	2:	dec r0
 506 01d6 02F4      		brpl 1b
 507 01d8 90E0      		ldi r25,lo8(0)
 508               	.LVL21:
 509 01da 8F70      		andi r24,lo8(15)
 510 01dc 9070      		andi r25,hi8(15)
 511               	.LVL22:
 512               	.LM82:
 513 01de 8A30      		cpi r24,10
 514 01e0 9105      		cpc r25,__zero_reg__
 515 01e2 00F0      		brlo .L48
 516               	.LM83:
 517 01e4 C796      		adiw r24,55
 518               	.LVL23:
 519 01e6 00C0      		rjmp .L49
 520               	.L48:
 521               	.LM84:
 522 01e8 C096      		adiw r24,48
 523               	.LVL24:
 524               	.L49:
 525               	.LM85:
 526 01ea 0E94 0000 		call debug_tx_byte
 527               	.LVL25:
 528               	.LM86:
 529 01ee B394      		inc r11
 530               	.L47:
 531 01f0 8B2D      		mov r24,r11
 532 01f2 90E0      		ldi r25,lo8(0)
 533               	.LVL26:
 534 01f4 8C15      		cp r24,r12
 535 01f6 9D05      		cpc r25,r13
 536 01f8 00F0      		brlo .L50
 537               	.LVL27:
 538               	/* epilogue start */
 539               	.LBE77:
 540               	.LM87:
 541 01fa DF91      		pop r29
 542 01fc CF91      		pop r28
 543               	.LVL28:
 544 01fe 1F91      		pop r17
 545 0200 0F91      		pop r16
 546 0202 FF90      		pop r15
 547 0204 EF90      		pop r14
 548               	.LVL29:
 549 0206 DF90      		pop r13
 550 0208 CF90      		pop r12
 551               	.LVL30:
 552 020a BF90      		pop r11
 553 020c 0895      		ret
 554               	.LFE18:
 556               	.global	debug_tx_bin
 558               	debug_tx_bin:
 559               	.LFB19:
 560               	.LM88:
 561               	.LVL31:
 562 020e AF92      		push r10
 563 0210 BF92      		push r11
 564 0212 CF92      		push r12
 565 0214 DF92      		push r13
 566 0216 EF92      		push r14
 567 0218 FF92      		push r15
 568 021a 0F93      		push r16
 569 021c 1F93      		push r17
 570 021e CF93      		push r28
 571 0220 DF93      		push r29
 572               	/* prologue: function */
 573               	/* frame size = 0 */
 574 0222 7B01      		movw r14,r22
 575 0224 8C01      		movw r16,r24
 576               	.LM89:
 577 0226 6F3F      		cpi r22,lo8(255)
 578 0228 7105      		cpc r23,__zero_reg__
 579 022a 8105      		cpc r24,__zero_reg__
 580 022c 9105      		cpc r25,__zero_reg__
 581 022e 01F0      		breq .+2
 582 0230 00F4      		brsh .L53
 583 0232 E7E0      		ldi r30,lo8(7)
 584 0234 DE2E      		mov r13,r30
 585               	.LVL32:
 586 0236 00C0      		rjmp .L54
 587               	.LVL33:
 588               	.L53:
 589               	.LM90:
 590 0238 6030      		cpi r22,lo8(65536)
 591 023a 30E0      		ldi r19,hi8(65536)
 592 023c 7307      		cpc r23,r19
 593 023e 31E0      		ldi r19,hlo8(65536)
 594 0240 8307      		cpc r24,r19
 595 0242 30E0      		ldi r19,hhi8(65536)
 596 0244 9307      		cpc r25,r19
 597 0246 00F0      		brlo .L55
 598 0248 7FE1      		ldi r23,lo8(31)
 599 024a D72E      		mov r13,r23
 600               	.LVL34:
 601 024c 00C0      		rjmp .L54
 602               	.LVL35:
 603               	.L55:
 604 024e 6FE0      		ldi r22,lo8(15)
 605 0250 D62E      		mov r13,r22
 606               	.LVL36:
 607               	.L54:
 608               	.LM91:
 609 0252 80E3      		ldi r24,lo8(48)
 610 0254 0E94 0000 		call debug_tx_byte
 611               	.LM92:
 612 0258 82E6      		ldi r24,lo8(98)
 613 025a 0E94 0000 		call debug_tx_byte
 614 025e C0E0      		ldi r28,lo8(0)
 615 0260 D0E0      		ldi r29,hi8(0)
 616               	.LM93:
 617 0262 CD2C      		mov r12,r13
 618 0264 DD24      		clr r13
 619               	.LVL37:
 620               	.LBB78:
 621               	.LM94:
 622 0266 5601      		movw r10,r12
 623 0268 0894      		sec
 624 026a A11C      		adc r10,__zero_reg__
 625 026c B11C      		adc r11,__zero_reg__
 626               	.L58:
 627               	.LM95:
 628 026e C601      		movw r24,r12
 629 0270 8C1B      		sub r24,r28
 630 0272 9D0B      		sbc r25,r29
 631 0274 A801      		movw r20,r16
 632 0276 9701      		movw r18,r14
 633 0278 00C0      		rjmp 2f
 634 027a 5695      	1:	lsr r21
 635 027c 4795      		ror r20
 636 027e 3795      		ror r19
 637 0280 2795      		ror r18
 638 0282 8A95      	2:	dec r24
 639 0284 02F4      		brpl 1b
 640 0286 DA01      		movw r26,r20
 641 0288 C901      		movw r24,r18
 642 028a 8170      		andi r24,lo8(1)
 643 028c 9070      		andi r25,hi8(1)
 644 028e 892B      		or r24,r25
 645 0290 01F0      		breq .L56
 646               	.LM96:
 647 0292 81E3      		ldi r24,lo8(49)
 648 0294 00C0      		rjmp .L61
 649               	.L56:
 650               	.LM97:
 651 0296 80E3      		ldi r24,lo8(48)
 652               	.L61:
 653 0298 0E94 0000 		call debug_tx_byte
 654 029c 2196      		adiw r28,1
 655               	.LM98:
 656 029e CA15      		cp r28,r10
 657 02a0 DB05      		cpc r29,r11
 658 02a2 01F4      		brne .L58
 659               	/* epilogue start */
 660               	.LBE78:
 661               	.LM99:
 662 02a4 DF91      		pop r29
 663 02a6 CF91      		pop r28
 664 02a8 1F91      		pop r17
 665 02aa 0F91      		pop r16
 666 02ac FF90      		pop r15
 667 02ae EF90      		pop r14
 668               	.LVL38:
 669 02b0 DF90      		pop r13
 670 02b2 CF90      		pop r12
 671 02b4 BF90      		pop r11
 672 02b6 AF90      		pop r10
 673 02b8 0895      		ret
 674               	.LFE19:
 676               	.global	debug_tx_nl
 678               	debug_tx_nl:
 679               	.LFB20:
 680               	.LM100:
 681               	/* prologue: function */
 682               	/* frame size = 0 */
 683               	.LM101:
 684 02ba 8DE0      		ldi r24,lo8(13)
 685 02bc 0E94 0000 		call debug_tx_byte
 686               	.LM102:
 687 02c0 8AE0      		ldi r24,lo8(10)
 688 02c2 0E94 0000 		call debug_tx_byte
 689               	/* epilogue start */
 690               	.LM103:
 691 02c6 0895      		ret
 692               	.LFE20:
 694               	.global	debug_tx_sp
 696               	debug_tx_sp:
 697               	.LFB21:
 698               	.LM104:
 699               	/* prologue: function */
 700               	/* frame size = 0 */
 701               	.LM105:
 702 02c8 80E2      		ldi r24,lo8(32)
 703 02ca 0E94 0000 		call debug_tx_byte
 704               	/* epilogue start */
 705               	.LM106:
 706 02ce 0895      		ret
 707               	.LFE21:
 709               	.global	debug_tx_cm
 711               	debug_tx_cm:
 712               	.LFB22:
 713               	.LM107:
 714               	/* prologue: function */
 715               	/* frame size = 0 */
 716               	.LM108:
 717 02d0 8CE2      		ldi r24,lo8(44)
 718 02d2 0E94 0000 		call debug_tx_byte
 719               	/* epilogue start */
 720               	.LM109:
 721 02d6 0895      		ret
 722               	.LFE22:
 724               	.global	debug_tx_text
 726               	debug_tx_text:
 727               	.LFB23:
 728               	.LM110:
 729               	.LVL39:
 730 02d8 1F93      		push r17
 731 02da CF93      		push r28
 732 02dc DF93      		push r29
 733               	/* prologue: function */
 734               	/* frame size = 0 */
 735 02de EC01      		movw r28,r24
 736               	.LM111:
 737 02e0 10E0      		ldi r17,lo8(0)
 738               	.LVL40:
 739 02e2 00C0      		rjmp .L69
 740               	.LVL41:
 741               	.L70:
 742               	.LM112:
 743 02e4 0E94 0000 		call debug_tx_byte
 744               	.LM113:
 745 02e8 1F5F      		subi r17,lo8(-(1))
 746               	.LVL42:
 747               	.L69:
 748               	.LM114:
 749 02ea FE01      		movw r30,r28
 750 02ec E10F      		add r30,r17
 751 02ee F11D      		adc r31,__zero_reg__
 752 02f0 8081      		ld r24,Z
 753 02f2 8823      		tst r24
 754 02f4 01F4      		brne .L70
 755               	/* epilogue start */
 756               	.LM115:
 757 02f6 DF91      		pop r29
 758 02f8 CF91      		pop r28
 759               	.LVL43:
 760 02fa 1F91      		pop r17
 761               	.LVL44:
 762 02fc 0895      		ret
 763               	.LFE23:
 765               	.global	debug_tx_text_nl
 767               	debug_tx_text_nl:
 768               	.LFB24:
 769               	.LM116:
 770               	.LVL45:
 771               	/* prologue: function */
 772               	/* frame size = 0 */
 773               	.LM117:
 774 02fe 0E94 0000 		call debug_tx_text
 775               	.LVL46:
 776               	.LM118:
 777 0302 0E94 0000 		call debug_tx_nl
 778               	/* epilogue start */
 779               	.LM119:
 780 0306 0895      		ret
 781               	.LFE24:
 783               	.global	debug_tx_text_sp
 785               	debug_tx_text_sp:
 786               	.LFB25:
 787               	.LM120:
 788               	.LVL47:
 789               	/* prologue: function */
 790               	/* frame size = 0 */
 791               	.LM121:
 792 0308 0E94 0000 		call debug_tx_text
 793               	.LVL48:
 794               	.LM122:
 795 030c 0E94 0000 		call debug_tx_sp
 796               	/* epilogue start */
 797               	.LM123:
 798 0310 0895      		ret
 799               	.LFE25:
 801               	.global	debug_tx_text_cm
 803               	debug_tx_text_cm:
 804               	.LFB26:
 805               	.LM124:
 806               	.LVL49:
 807               	/* prologue: function */
 808               	/* frame size = 0 */
 809               	.LM125:
 810 0312 0E94 0000 		call debug_tx_text
 811               	.LVL50:
 812               	.LM126:
 813 0316 0E94 0000 		call debug_tx_cm
 814               	/* epilogue start */
 815               	.LM127:
 816 031a 0895      		ret
 817               	.LFE26:
 819               	.global	debug_determine_digit_numbers
 821               	debug_determine_digit_numbers:
 822               	.LFB27:
 823               	.LM128:
 824               	.LVL51:
 825 031c BF92      		push r11
 826 031e CF92      		push r12
 827 0320 DF92      		push r13
 828 0322 EF92      		push r14
 829 0324 FF92      		push r15
 830 0326 0F93      		push r16
 831 0328 1F93      		push r17
 832               	/* prologue: function */
 833               	/* frame size = 0 */
 834 032a 6B01      		movw r12,r22
 835 032c 7C01      		movw r14,r24
 836               	.LM129:
 837 032e 6115      		cp r22,__zero_reg__
 838 0330 7105      		cpc r23,__zero_reg__
 839 0332 8105      		cpc r24,__zero_reg__
 840 0334 9105      		cpc r25,__zero_reg__
 841 0336 01F4      		brne .L79
 842               	.LM130:
 843 0338 1092 0000 		sts debug+2,__zero_reg__
 844               	.LM131:
 845 033c 81E0      		ldi r24,lo8(1)
 846 033e 8093 0000 		sts debug+10,r24
 847 0342 00C0      		rjmp .L82
 848               	.L79:
 849 0344 BB24      		clr r11
 850               	.LVL52:
 851               	.L81:
 852               	.LM132:
 853 0346 0B2D      		mov r16,r11
 854 0348 10E0      		ldi r17,lo8(0)
 855               	.LVL53:
 856 034a 0050      		subi r16,lo8(-(debug))
 857 034c 1040      		sbci r17,hi8(-(debug))
 858               	.LVL54:
 859 034e C701      		movw r24,r14
 860 0350 B601      		movw r22,r12
 861               	.LVL55:
 862 0352 2AE0      		ldi r18,lo8(10)
 863 0354 30E0      		ldi r19,hi8(10)
 864 0356 40E0      		ldi r20,hlo8(10)
 865 0358 50E0      		ldi r21,hhi8(10)
 866 035a 0E94 0000 		call __udivmodsi4
 867 035e F801      		movw r30,r16
 868 0360 6283      		std Z+2,r22
 869               	.LM133:
 870 0362 C701      		movw r24,r14
 871 0364 B601      		movw r22,r12
 872 0366 2AE0      		ldi r18,lo8(10)
 873 0368 30E0      		ldi r19,hi8(10)
 874 036a 40E0      		ldi r20,hlo8(10)
 875 036c 50E0      		ldi r21,hhi8(10)
 876 036e 0E94 0000 		call __udivmodsi4
 877 0372 C901      		movw r24,r18
 878 0374 DA01      		movw r26,r20
 879 0376 6C01      		movw r12,r24
 880 0378 7D01      		movw r14,r26
 881               	.LM134:
 882 037a B394      		inc r11
 883               	.LVL56:
 884               	.LM135:
 885 037c C114      		cp r12,__zero_reg__
 886 037e D104      		cpc r13,__zero_reg__
 887 0380 E104      		cpc r14,__zero_reg__
 888 0382 F104      		cpc r15,__zero_reg__
 889 0384 01F4      		brne .L81
 890               	.LM136:
 891 0386 B092 0000 		sts debug+10,r11
 892               	.LVL57:
 893               	.L82:
 894               	/* epilogue start */
 895               	.LM137:
 896 038a 1F91      		pop r17
 897               	.LVL58:
 898 038c 0F91      		pop r16
 899 038e FF90      		pop r15
 900 0390 EF90      		pop r14
 901 0392 DF90      		pop r13
 902 0394 CF90      		pop r12
 903               	.LVL59:
 904 0396 BF90      		pop r11
 905               	.LVL60:
 906 0398 0895      		ret
 907               	.LFE27:
 909               	.global	debug_tx_number_digits
 911               	debug_tx_number_digits:
 912               	.LFB28:
 913               	.LM138:
 914 039a 1F93      		push r17
 915               	/* prologue: function */
 916               	/* frame size = 0 */
 917               	.LBB79:
 918               	.LM139:
 919 039c 1091 0000 		lds r17,debug+10
 920               	.LVL61:
 921 03a0 00C0      		rjmp .L85
 922               	.L86:
 923               	.LBB80:
 924               	.LM140:
 925 03a2 1150      		subi r17,lo8(-(-1))
 926               	.LVL62:
 927               	.LM141:
 928 03a4 E12F      		mov r30,r17
 929 03a6 F0E0      		ldi r31,lo8(0)
 930 03a8 E050      		subi r30,lo8(-(debug))
 931 03aa F040      		sbci r31,hi8(-(debug))
 932 03ac 8281      		ldd r24,Z+2
 933               	.LVL63:
 934               	.LM142:
 935 03ae 805D      		subi r24,lo8(-(48))
 936               	.LVL64:
 937 03b0 0E94 0000 		call debug_tx_byte
 938               	.LVL65:
 939               	.L85:
 940               	.LBE80:
 941               	.LM143:
 942 03b4 1123      		tst r17
 943 03b6 01F4      		brne .L86
 944               	/* epilogue start */
 945               	.LBE79:
 946               	.LM144:
 947 03b8 1F91      		pop r17
 948               	.LVL66:
 949 03ba 0895      		ret
 950               	.LFE28:
 952               	.global	debug_tx_number
 954               	debug_tx_number:
 955               	.LFB29:
 956               	.LM145:
 957               	.LVL67:
 958 03bc EF92      		push r14
 959 03be FF92      		push r15
 960 03c0 0F93      		push r16
 961 03c2 1F93      		push r17
 962               	/* prologue: function */
 963               	/* frame size = 0 */
 964 03c4 7B01      		movw r14,r22
 965 03c6 8C01      		movw r16,r24
 966               	.LM146:
 967 03c8 97FF      		sbrs r25,7
 968 03ca 00C0      		rjmp .L89
 969               	.LM147:
 970 03cc 8DE2      		ldi r24,lo8(45)
 971 03ce 0E94 0000 		call debug_tx_byte
 972               	.LVL68:
 973               	.LM148:
 974 03d2 1095      		com r17
 975 03d4 0095      		com r16
 976 03d6 F094      		com r15
 977 03d8 E094      		com r14
 978 03da E11C      		adc r14,__zero_reg__
 979 03dc F11C      		adc r15,__zero_reg__
 980 03de 011D      		adc r16,__zero_reg__
 981 03e0 111D      		adc r17,__zero_reg__
 982               	.LVL69:
 983               	.L89:
 984               	.LM149:
 985 03e2 C801      		movw r24,r16
 986 03e4 B701      		movw r22,r14
 987 03e6 0E94 0000 		call debug_determine_digit_numbers
 988               	.LM150:
 989 03ea 0E94 0000 		call debug_tx_number_digits
 990               	/* epilogue start */
 991               	.LM151:
 992 03ee 1F91      		pop r17
 993 03f0 0F91      		pop r16
 994 03f2 FF90      		pop r15
 995 03f4 EF90      		pop r14
 996               	.LVL70:
 997 03f6 0895      		ret
 998               	.LFE29:
 1000               	.global	debug_tx_number_nl
 1002               	debug_tx_number_nl:
 1003               	.LFB30:
 1004               	.LM152:
 1005               	.LVL71:
 1006               	/* prologue: function */
 1007               	/* frame size = 0 */
 1008               	.LM153:
 1009 03f8 0E94 0000 		call debug_tx_number
 1010               	.LVL72:
 1011               	.LM154:
 1012 03fc 0E94 0000 		call debug_tx_nl
 1013               	/* epilogue start */
 1014               	.LM155:
 1015 0400 0895      		ret
 1016               	.LFE30:
 1018               	.global	debug_tx_number_sp
 1020               	debug_tx_number_sp:
 1021               	.LFB31:
 1022               	.LM156:
 1023               	.LVL73:
 1024               	/* prologue: function */
 1025               	/* frame size = 0 */
 1026               	.LM157:
 1027 0402 0E94 0000 		call debug_tx_number
 1028               	.LVL74:
 1029               	.LM158:
 1030 0406 0E94 0000 		call debug_tx_sp
 1031               	/* epilogue start */
 1032               	.LM159:
 1033 040a 0895      		ret
 1034               	.LFE31:
 1036               		.data
 1037               	.LC0:
 1038 0000 2C00      		.string	","
 1039               		.text
 1040               	.global	debug_tx_number_cm
 1042               	debug_tx_number_cm:
 1043               	.LFB32:
 1044               	.LM160:
 1045               	.LVL75:
 1046               	/* prologue: function */
 1047               	/* frame size = 0 */
 1048               	.LM161:
 1049 040c 0E94 0000 		call debug_tx_number
 1050               	.LVL76:
 1051               	.LM162:
 1052 0410 80E0      		ldi r24,lo8(.LC0)
 1053 0412 90E0      		ldi r25,hi8(.LC0)
 1054 0414 0E94 0000 		call debug_tx_text
 1055               	/* epilogue start */
 1056               	.LM163:
 1057 0418 0895      		ret
 1058               	.LFE32:
 1060               	.global	debug_tx_number_hex_nl
 1062               	debug_tx_number_hex_nl:
 1063               	.LFB33:
 1064               	.LM164:
 1065               	.LVL77:
 1066               	/* prologue: function */
 1067               	/* frame size = 0 */
 1068               	.LM165:
 1069 041a 0E94 0000 		call debug_tx_hex
 1070               	.LVL78:
 1071               	.LM166:
 1072 041e 0E94 0000 		call debug_tx_nl
 1073               	/* epilogue start */
 1074               	.LM167:
 1075 0422 0895      		ret
 1076               	.LFE33:
 1078               	.global	debug_tx_number_hex_sp
 1080               	debug_tx_number_hex_sp:
 1081               	.LFB34:
 1082               	.LM168:
 1083               	.LVL79:
 1084               	/* prologue: function */
 1085               	/* frame size = 0 */
 1086               	.LM169:
 1087 0424 0E94 0000 		call debug_tx_hex
 1088               	.LVL80:
 1089               	.LM170:
 1090 0428 0E94 0000 		call debug_tx_sp
 1091               	/* epilogue start */
 1092               	.LM171:
 1093 042c 0895      		ret
 1094               	.LFE34:
 1096               	.global	debug_tx_number_hex_cm
 1098               	debug_tx_number_hex_cm:
 1099               	.LFB35:
 1100               	.LM172:
 1101               	.LVL81:
 1102               	/* prologue: function */
 1103               	/* frame size = 0 */
 1104               	.LM173:
 1105 042e 0E94 0000 		call debug_tx_hex
 1106               	.LVL82:
 1107               	.LM174:
 1108 0432 80E0      		ldi r24,lo8(.LC0)
 1109 0434 90E0      		ldi r25,hi8(.LC0)
 1110 0436 0E94 0000 		call debug_tx_text
 1111               	/* epilogue start */
 1112               	.LM175:
 1113 043a 0895      		ret
 1114               	.LFE35:
 1116               	.global	debug_tx_parameter_nl
 1118               	debug_tx_parameter_nl:
 1119               	.LFB36:
 1120               	.LM176:
 1121               	.LVL83:
 1122 043c EF92      		push r14
 1123 043e FF92      		push r15
 1124 0440 0F93      		push r16
 1125 0442 1F93      		push r17
 1126               	/* prologue: function */
 1127               	/* frame size = 0 */
 1128 0444 7A01      		movw r14,r20
 1129 0446 8B01      		movw r16,r22
 1130               	.LM177:
 1131 0448 0E94 0000 		call debug_tx_text
 1132               	.LVL84:
 1133               	.LM178:
 1134 044c 0E94 0000 		call debug_tx_sp
 1135               	.LM179:
 1136 0450 C801      		movw r24,r16
 1137 0452 B701      		movw r22,r14
 1138 0454 0E94 0000 		call debug_tx_number_nl
 1139               	/* epilogue start */
 1140               	.LM180:
 1141 0458 1F91      		pop r17
 1142 045a 0F91      		pop r16
 1143 045c FF90      		pop r15
 1144 045e EF90      		pop r14
 1145               	.LVL85:
 1146 0460 0895      		ret
 1147               	.LFE36:
 1149               	.global	debug_tx_parameter_sp
 1151               	debug_tx_parameter_sp:
 1152               	.LFB37:
 1153               	.LM181:
 1154               	.LVL86:
 1155 0462 EF92      		push r14
 1156 0464 FF92      		push r15
 1157 0466 0F93      		push r16
 1158 0468 1F93      		push r17
 1159               	/* prologue: function */
 1160               	/* frame size = 0 */
 1161 046a 7A01      		movw r14,r20
 1162 046c 8B01      		movw r16,r22
 1163               	.LM182:
 1164 046e 0E94 0000 		call debug_tx_text
 1165               	.LVL87:
 1166               	.LM183:
 1167 0472 0E94 0000 		call debug_tx_sp
 1168               	.LM184:
 1169 0476 C801      		movw r24,r16
 1170 0478 B701      		movw r22,r14
 1171 047a 0E94 0000 		call debug_tx_number_sp
 1172               	/* epilogue start */
 1173               	.LM185:
 1174 047e 1F91      		pop r17
 1175 0480 0F91      		pop r16
 1176 0482 FF90      		pop r15
 1177 0484 EF90      		pop r14
 1178               	.LVL88:
 1179 0486 0895      		ret
 1180               	.LFE37:
 1182               	.global	debug_tx_parameter_cm
 1184               	debug_tx_parameter_cm:
 1185               	.LFB38:
 1186               	.LM186:
 1187               	.LVL89:
 1188 0488 EF92      		push r14
 1189 048a FF92      		push r15
 1190 048c 0F93      		push r16
 1191 048e 1F93      		push r17
 1192               	/* prologue: function */
 1193               	/* frame size = 0 */
 1194 0490 7A01      		movw r14,r20
 1195 0492 8B01      		movw r16,r22
 1196               	.LM187:
 1197 0494 0E94 0000 		call debug_tx_text
 1198               	.LVL90:
 1199               	.LM188:
 1200 0498 0E94 0000 		call debug_tx_sp
 1201               	.LM189:
 1202 049c C801      		movw r24,r16
 1203 049e B701      		movw r22,r14
 1204 04a0 0E94 0000 		call debug_tx_number_cm
 1205               	/* epilogue start */
 1206               	.LM190:
 1207 04a4 1F91      		pop r17
 1208 04a6 0F91      		pop r16
 1209 04a8 FF90      		pop r15
 1210 04aa EF90      		pop r14
 1211               	.LVL91:
 1212 04ac 0895      		ret
 1213               	.LFE38:
 1215               	.global	debug_tx_parameter_hex_nl
 1217               	debug_tx_parameter_hex_nl:
 1218               	.LFB39:
 1219               	.LM191:
 1220               	.LVL92:
 1221 04ae EF92      		push r14
 1222 04b0 FF92      		push r15
 1223 04b2 0F93      		push r16
 1224 04b4 1F93      		push r17
 1225               	/* prologue: function */
 1226               	/* frame size = 0 */
 1227 04b6 7A01      		movw r14,r20
 1228 04b8 8B01      		movw r16,r22
 1229               	.LM192:
 1230 04ba 0E94 0000 		call debug_tx_text
 1231               	.LVL93:
 1232               	.LM193:
 1233 04be 0E94 0000 		call debug_tx_sp
 1234               	.LM194:
 1235 04c2 C801      		movw r24,r16
 1236 04c4 B701      		movw r22,r14
 1237 04c6 0E94 0000 		call debug_tx_number_hex_nl
 1238               	/* epilogue start */
 1239               	.LM195:
 1240 04ca 1F91      		pop r17
 1241 04cc 0F91      		pop r16
 1242 04ce FF90      		pop r15
 1243 04d0 EF90      		pop r14
 1244               	.LVL94:
 1245 04d2 0895      		ret
 1246               	.LFE39:
 1248               	.global	debug_tx_parameter_hex_sp
 1250               	debug_tx_parameter_hex_sp:
 1251               	.LFB40:
 1252               	.LM196:
 1253               	.LVL95:
 1254 04d4 EF92      		push r14
 1255 04d6 FF92      		push r15
 1256 04d8 0F93      		push r16
 1257 04da 1F93      		push r17
 1258               	/* prologue: function */
 1259               	/* frame size = 0 */
 1260 04dc 7A01      		movw r14,r20
 1261 04de 8B01      		movw r16,r22
 1262               	.LM197:
 1263 04e0 0E94 0000 		call debug_tx_text
 1264               	.LVL96:
 1265               	.LM198:
 1266 04e4 0E94 0000 		call debug_tx_sp
 1267               	.LM199:
 1268 04e8 C801      		movw r24,r16
 1269 04ea B701      		movw r22,r14
 1270 04ec 0E94 0000 		call debug_tx_number_hex_sp
 1271               	/* epilogue start */
 1272               	.LM200:
 1273 04f0 1F91      		pop r17
 1274 04f2 0F91      		pop r16
 1275 04f4 FF90      		pop r15
 1276 04f6 EF90      		pop r14
 1277               	.LVL97:
 1278 04f8 0895      		ret
 1279               	.LFE40:
 1281               	.global	debug_tx_parameter_hex_cm
 1283               	debug_tx_parameter_hex_cm:
 1284               	.LFB41:
 1285               	.LM201:
 1286               	.LVL98:
 1287 04fa EF92      		push r14
 1288 04fc FF92      		push r15
 1289 04fe 0F93      		push r16
 1290 0500 1F93      		push r17
 1291               	/* prologue: function */
 1292               	/* frame size = 0 */
 1293 0502 7A01      		movw r14,r20
 1294 0504 8B01      		movw r16,r22
 1295               	.LM202:
 1296 0506 0E94 0000 		call debug_tx_text
 1297               	.LVL99:
 1298               	.LM203:
 1299 050a 0E94 0000 		call debug_tx_sp
 1300               	.LM204:
 1301 050e C801      		movw r24,r16
 1302 0510 B701      		movw r22,r14
 1303 0512 0E94 0000 		call debug_tx_number_hex_cm
 1304               	/* epilogue start */
 1305               	.LM205:
 1306 0516 1F91      		pop r17
 1307 0518 0F91      		pop r16
 1308 051a FF90      		pop r15
 1309 051c EF90      		pop r14
 1310               	.LVL100:
 1311 051e 0895      		ret
 1312               	.LFE41:
 1314               	.global	debug_loop_counter_inc
 1316               	debug_loop_counter_inc:
 1317               	.LFB42:
 1318               	.LM206:
 1319               	/* prologue: function */
 1320               	/* frame size = 0 */
 1321               	.LM207:
 1322 0520 8091 0000 		lds r24,debug+13
 1323 0524 9091 0000 		lds r25,(debug+13)+1
 1324 0528 0196      		adiw r24,1
 1325 052a 9093 0000 		sts (debug+13)+1,r25
 1326 052e 8093 0000 		sts debug+13,r24
 1327               	.LM208:
 1328 0532 8536      		cpi r24,101
 1329 0534 9105      		cpc r25,__zero_reg__
 1330 0536 00F0      		brlo .L118
 1331               	.LM209:
 1332 0538 8091 0000 		lds r24,debug+11
 1333 053c 9091 0000 		lds r25,(debug+11)+1
 1334 0540 0196      		adiw r24,1
 1335 0542 9093 0000 		sts (debug+11)+1,r25
 1336 0546 8093 0000 		sts debug+11,r24
 1337               	.LM210:
 1338 054a 895E      		subi r24,lo8(-535)
 1339 054c 9D4F      		sbci r25,hi8(-535)
 1340 054e 00F0      		brlo .L117
 1341               	.LM211:
 1342 0550 1092 0000 		sts (debug+11)+1,__zero_reg__
 1343 0554 1092 0000 		sts debug+11,__zero_reg__
 1344               	.L117:
 1345               	.LM212:
 1346 0558 1092 0000 		sts (debug+13)+1,__zero_reg__
 1347 055c 1092 0000 		sts debug+13,__zero_reg__
 1348               	.LM213:
 1349 0560 81E0      		ldi r24,lo8(1)
 1350 0562 8093 0000 		sts debug+15,r24
 1351               	.L118:
 1352 0566 0895      		ret
 1353               	.LFE42:
 1355               	.global	debug_get_count
 1357               	debug_get_count:
 1358               	.LFB43:
 1359               	.LM214:
 1360               	/* prologue: function */
 1361               	/* frame size = 0 */
 1362               	.LM215:
 1363 0568 8091 0000 		lds r24,debug+11
 1364 056c 9091 0000 		lds r25,debug+12
 1365               	/* epilogue start */
 1366 0570 0895      		ret
 1367               	.LFE43:
 1369               	.global	debug_get_loop_counter
 1371               	debug_get_loop_counter:
 1372               	.LFB44:
 1373               	.LM216:
 1374               	/* prologue: function */
 1375               	/* frame size = 0 */
 1376               	.LM217:
 1377 0572 8091 0000 		lds r24,debug+13
 1378 0576 9091 0000 		lds r25,debug+14
 1379               	/* epilogue start */
 1380 057a 0895      		ret
 1381               	.LFE44:
 1383               	.global	debug_get_loop_counter_ovf
 1385               	debug_get_loop_counter_ovf:
 1386               	.LFB45:
 1387               	.LM218:
 1388               	/* prologue: function */
 1389               	/* frame size = 0 */
 1390               	.LM219:
 1391 057c 8091 0000 		lds r24,debug+15
 1392 0580 8823      		tst r24
 1393 0582 01F0      		breq .L125
 1394               	.LM220:
 1395 0584 1092 0000 		sts debug+15,__zero_reg__
 1396 0588 81E0      		ldi r24,lo8(1)
 1397               	.L125:
 1398               	.LM221:
 1399 058a 0895      		ret
 1400               	.LFE45:
 1402               	.global	debug_init
 1404               	debug_init:
 1405               	.LFB46:
 1406               	.LM222:
 1407               	/* prologue: function */
 1408               	/* frame size = 0 */
 1409               	.LM223:
 1410 058c 0E94 0000 		call debug_struct_init
 1411               	.LM224:
 1412 0590 0E94 0000 		call debug_timings_init
 1413               	.LM225:
 1414 0594 0E94 0000 		call debug_gpio_init
 1415               	/* epilogue start */
 1416               	.LM226:
 1417 0598 0895      		ret
 1418               	.LFE46:
 1420               	.global	__vector_5
 1422               	__vector_5:
 1423               	.LFB47:
 1424               	.LM227:
 1425 059a 1F92      		push __zero_reg__
 1426 059c 0F92      		push r0
 1427 059e 0FB6      		in r0,__SREG__
 1428 05a0 0F92      		push r0
 1429 05a2 1124      		clr __zero_reg__
 1430 05a4 2F93      		push r18
 1431 05a6 3F93      		push r19
 1432 05a8 4F93      		push r20
 1433 05aa 5F93      		push r21
 1434 05ac 8F93      		push r24
 1435 05ae 9F93      		push r25
 1436               	/* prologue: Signal */
 1437               	/* frame size = 0 */
 1438               	.LBB81:
 1439               	.LBB82:
 1440               	.LM228:
 1441 05b0 4D99      		sbic 41-32,5
 1442 05b2 00C0      		rjmp .L144
 1443 05b4 00C0      		rjmp .L150
 1444               	.L132:
 1445               	.LBE82:
 1446               	.LBE81:
 1447               	.LBB83:
 1448               	.LBB84:
 1449               	.LBB85:
 1450               	.LM229:
 1451 05b6 8091 8400 		lds r24,132
 1452 05ba 9091 8500 		lds r25,(132)+1
 1453 05be 8E54      		subi r24,lo8(590)
 1454 05c0 9240      		sbci r25,hi8(590)
 1455 05c2 00F0      		brlo .L132
 1456 05c4 30E0      		ldi r19,lo8(0)
 1457               	.LVL101:
 1458 05c6 40E0      		ldi r20,lo8(0)
 1459               	.LVL102:
 1460 05c8 20E0      		ldi r18,lo8(0)
 1461               	.LVL103:
 1462               	.L142:
 1463               	.LBE85:
 1464               	.LBE84:
 1465               	.LBB87:
 1466               	.LM230:
 1467 05ca 2223      		tst r18
 1468 05cc 01F4      		brne .L133
 1469               	.LBB108:
 1470               	.LBB109:
 1471               	.LM231:
 1472 05ce 4D9B      		sbis 41-32,5
 1473 05d0 00C0      		rjmp .L134
 1474               	.L143:
 1475               	.LBE109:
 1476               	.LBE108:
 1477               	.LBB106:
 1478               	.LBB107:
 1479               	.LM232:
 1480 05d2 1092 8500 		sts (132)+1,__zero_reg__
 1481 05d6 1092 8400 		sts 132,__zero_reg__
 1482               	.L135:
 1483               	.LM233:
 1484 05da 8091 8400 		lds r24,132
 1485 05de 9091 8500 		lds r25,(132)+1
 1486 05e2 8C59      		subi r24,lo8(1180)
 1487 05e4 9440      		sbci r25,hi8(1180)
 1488 05e6 00F0      		brlo .L135
 1489 05e8 00C0      		rjmp .L136
 1490               	.L133:
 1491               	.LBE107:
 1492               	.LBE106:
 1493               	.LM234:
 1494 05ea 822F      		mov r24,r18
 1495 05ec 8150      		subi r24,lo8(-(-1))
 1496 05ee 8830      		cpi r24,lo8(8)
 1497 05f0 00F4      		brsh .L137
 1498               	.LBB104:
 1499               	.LBB105:
 1500               	.LM235:
 1501 05f2 89B1      		in r24,41-32
 1502               	.LBE105:
 1503               	.LBE104:
 1504               	.LM236:
 1505 05f4 90E0      		ldi r25,lo8(0)
 1506 05f6 55E0      		ldi r21,5
 1507 05f8 9695      	1:	lsr r25
 1508 05fa 8795      		ror r24
 1509 05fc 5A95      		dec r21
 1510 05fe 01F4      		brne 1b
 1511 0600 8170      		andi r24,lo8(1)
 1512 0602 382B      		or r19,r24
 1513               	.LBB100:
 1514               	.LBB101:
 1515               	.LBB102:
 1516               	.LBB103:
 1517               	.LM237:
 1518 0604 5E98      		cbi 43-32,6
 1519               	.LBE103:
 1520               	.LBE102:
 1521               	.LBE101:
 1522               	.LBE100:
 1523               	.LBB96:
 1524               	.LBB97:
 1525               	.LBB98:
 1526               	.LBB99:
 1527               	.LM238:
 1528 0606 5E9A      		sbi 43-32,6
 1529               	.LBE99:
 1530               	.LBE98:
 1531               	.LBE97:
 1532               	.LBE96:
 1533               	.LM239:
 1534 0608 2830      		cpi r18,lo8(8)
 1535 060a 01F0      		breq .L138
 1536               	.LM240:
 1537 060c 330F      		lsl r19
 1538               	.L138:
 1539               	.LBB94:
 1540               	.LBB95:
 1541               	.LM241:
 1542 060e 1092 8500 		sts (132)+1,__zero_reg__
 1543 0612 1092 8400 		sts 132,__zero_reg__
 1544               	.L139:
 1545               	.LM242:
 1546 0616 8091 8400 		lds r24,132
 1547 061a 9091 8500 		lds r25,(132)+1
 1548 061e 8C59      		subi r24,lo8(1180)
 1549 0620 9440      		sbci r25,hi8(1180)
 1550 0622 00F0      		brlo .L139
 1551 0624 00C0      		rjmp .L136
 1552               	.L137:
 1553               	.LBE95:
 1554               	.LBE94:
 1555               	.LM243:
 1556 0626 2930      		cpi r18,lo8(9)
 1557 0628 01F4      		brne .L136
 1558               	.LBB92:
 1559               	.LBB93:
 1560               	.LM244:
 1561 062a 4D9B      		sbis 41-32,5
 1562 062c 00C0      		rjmp .L141
 1563               	.LBE93:
 1564               	.LBE92:
 1565               	.LM245:
 1566 062e 4170      		andi r20,lo8(1)
 1567               	.LM246:
 1568 0630 4130      		cpi r20,lo8(1)
 1569 0632 01F4      		brne .L141
 1570               	.LBB90:
 1571               	.LBB91:
 1572               	.LM247:
 1573 0634 3093 0000 		sts debug+1,r19
 1574 0638 00C0      		rjmp .L136
 1575               	.L141:
 1576               	.LBE91:
 1577               	.LBE90:
 1578               	.LBB88:
 1579               	.LBB89:
 1580               	.LM248:
 1581 063a 1092 0000 		sts debug+1,__zero_reg__
 1582               	.L136:
 1583               	.LBE89:
 1584               	.LBE88:
 1585               	.LM249:
 1586 063e 2F5F      		subi r18,lo8(-(1))
 1587 0640 2A30      		cpi r18,lo8(10)
 1588 0642 01F4      		brne .L142
 1589 0644 00C0      		rjmp .L144
 1590               	.LVL104:
 1591               	.L150:
 1592               	.LBE87:
 1593               	.LBB118:
 1594               	.LBB86:
 1595               	.LM250:
 1596 0646 1092 8500 		sts (132)+1,__zero_reg__
 1597 064a 1092 8400 		sts 132,__zero_reg__
 1598 064e 00C0      		rjmp .L132
 1599               	.LVL105:
 1600               	.L134:
 1601               	.LBE86:
 1602               	.LBE118:
 1603               	.LBB119:
 1604               	.LBB110:
 1605               	.LBB111:
 1606               	.LBB112:
 1607               	.LBB113:
 1608               	.LM251:
 1609 0650 5E98      		cbi 43-32,6
 1610               	.LBE113:
 1611               	.LBE112:
 1612               	.LBE111:
 1613               	.LBE110:
 1614               	.LBB114:
 1615               	.LBB115:
 1616               	.LBB116:
 1617               	.LBB117:
 1618               	.LM252:
 1619 0652 5E9A      		sbi 43-32,6
 1620 0654 41E0      		ldi r20,lo8(1)
 1621 0656 00C0      		rjmp .L143
 1622               	.L144:
 1623               	/* epilogue start */
 1624               	.LBE117:
 1625               	.LBE116:
 1626               	.LBE115:
 1627               	.LBE114:
 1628               	.LBE119:
 1629               	.LBE83:
 1630               	.LM253:
 1631 0658 9F91      		pop r25
 1632 065a 8F91      		pop r24
 1633 065c 5F91      		pop r21
 1634 065e 4F91      		pop r20
 1635               	.LVL106:
 1636 0660 3F91      		pop r19
 1637               	.LVL107:
 1638 0662 2F91      		pop r18
 1639               	.LVL108:
 1640 0664 0F90      		pop r0
 1641 0666 0FBE      		out __SREG__,r0
 1642 0668 0F90      		pop r0
 1643 066a 1F90      		pop __zero_reg__
 1644 066c 1895      		reti
 1645               	.LFE47:
 1647               		.comm debug,17,1
 2000               	.Letext0:
DEFINED SYMBOLS
                            *ABS*:00000000 debug.c
C:\Users\farid\AppData\Local\Temp/ccKd0Zpl.s:2      *ABS*:0000003f __SREG__
C:\Users\farid\AppData\Local\Temp/ccKd0Zpl.s:3      *ABS*:0000003e __SP_H__
C:\Users\farid\AppData\Local\Temp/ccKd0Zpl.s:4      *ABS*:0000003d __SP_L__
C:\Users\farid\AppData\Local\Temp/ccKd0Zpl.s:5      *ABS*:00000034 __CCP__
C:\Users\farid\AppData\Local\Temp/ccKd0Zpl.s:6      *ABS*:00000000 __tmp_reg__
C:\Users\farid\AppData\Local\Temp/ccKd0Zpl.s:7      *ABS*:00000001 __zero_reg__
C:\Users\farid\AppData\Local\Temp/ccKd0Zpl.s:18     .text:00000000 debug_struct_init
                            *COM*:00000011 debug
C:\Users\farid\AppData\Local\Temp/ccKd0Zpl.s:58     .text:00000026 debug_timings_init
C:\Users\farid\AppData\Local\Temp/ccKd0Zpl.s:99     .text:00000052 debug_gpio_init
C:\Users\farid\AppData\Local\Temp/ccKd0Zpl.s:119    .text:0000005c debug_tx_high
C:\Users\farid\AppData\Local\Temp/ccKd0Zpl.s:133    .text:00000060 debug_tx_low
C:\Users\farid\AppData\Local\Temp/ccKd0Zpl.s:147    .text:00000064 debug_tx_set
C:\Users\farid\AppData\Local\Temp/ccKd0Zpl.s:175    .text:00000070 debug_rx_get
C:\Users\farid\AppData\Local\Temp/ccKd0Zpl.s:196    .text:00000082 debug_delay
C:\Users\farid\AppData\Local\Temp/ccKd0Zpl.s:221    .text:0000009c debug_tx_byte
C:\Users\farid\AppData\Local\Temp/ccKd0Zpl.s:374    .text:00000148 debug_rx_byte
C:\Users\farid\AppData\Local\Temp/ccKd0Zpl.s:388    .text:0000014e debug_rx_byte_clear
C:\Users\farid\AppData\Local\Temp/ccKd0Zpl.s:402    .text:00000154 debug_rx_byte_set
C:\Users\farid\AppData\Local\Temp/ccKd0Zpl.s:417    .text:0000015a debug_tx_hex
C:\Users\farid\AppData\Local\Temp/ccKd0Zpl.s:558    .text:0000020e debug_tx_bin
C:\Users\farid\AppData\Local\Temp/ccKd0Zpl.s:678    .text:000002ba debug_tx_nl
C:\Users\farid\AppData\Local\Temp/ccKd0Zpl.s:696    .text:000002c8 debug_tx_sp
C:\Users\farid\AppData\Local\Temp/ccKd0Zpl.s:711    .text:000002d0 debug_tx_cm
C:\Users\farid\AppData\Local\Temp/ccKd0Zpl.s:726    .text:000002d8 debug_tx_text
C:\Users\farid\AppData\Local\Temp/ccKd0Zpl.s:767    .text:000002fe debug_tx_text_nl
C:\Users\farid\AppData\Local\Temp/ccKd0Zpl.s:785    .text:00000308 debug_tx_text_sp
C:\Users\farid\AppData\Local\Temp/ccKd0Zpl.s:803    .text:00000312 debug_tx_text_cm
C:\Users\farid\AppData\Local\Temp/ccKd0Zpl.s:821    .text:0000031c debug_determine_digit_numbers
C:\Users\farid\AppData\Local\Temp/ccKd0Zpl.s:911    .text:0000039a debug_tx_number_digits
C:\Users\farid\AppData\Local\Temp/ccKd0Zpl.s:954    .text:000003bc debug_tx_number
C:\Users\farid\AppData\Local\Temp/ccKd0Zpl.s:1002   .text:000003f8 debug_tx_number_nl
C:\Users\farid\AppData\Local\Temp/ccKd0Zpl.s:1020   .text:00000402 debug_tx_number_sp
C:\Users\farid\AppData\Local\Temp/ccKd0Zpl.s:1042   .text:0000040c debug_tx_number_cm
C:\Users\farid\AppData\Local\Temp/ccKd0Zpl.s:1062   .text:0000041a debug_tx_number_hex_nl
C:\Users\farid\AppData\Local\Temp/ccKd0Zpl.s:1080   .text:00000424 debug_tx_number_hex_sp
C:\Users\farid\AppData\Local\Temp/ccKd0Zpl.s:1098   .text:0000042e debug_tx_number_hex_cm
C:\Users\farid\AppData\Local\Temp/ccKd0Zpl.s:1118   .text:0000043c debug_tx_parameter_nl
C:\Users\farid\AppData\Local\Temp/ccKd0Zpl.s:1151   .text:00000462 debug_tx_parameter_sp
C:\Users\farid\AppData\Local\Temp/ccKd0Zpl.s:1184   .text:00000488 debug_tx_parameter_cm
C:\Users\farid\AppData\Local\Temp/ccKd0Zpl.s:1217   .text:000004ae debug_tx_parameter_hex_nl
C:\Users\farid\AppData\Local\Temp/ccKd0Zpl.s:1250   .text:000004d4 debug_tx_parameter_hex_sp
C:\Users\farid\AppData\Local\Temp/ccKd0Zpl.s:1283   .text:000004fa debug_tx_parameter_hex_cm
C:\Users\farid\AppData\Local\Temp/ccKd0Zpl.s:1316   .text:00000520 debug_loop_counter_inc
C:\Users\farid\AppData\Local\Temp/ccKd0Zpl.s:1357   .text:00000568 debug_get_count
C:\Users\farid\AppData\Local\Temp/ccKd0Zpl.s:1371   .text:00000572 debug_get_loop_counter
C:\Users\farid\AppData\Local\Temp/ccKd0Zpl.s:1385   .text:0000057c debug_get_loop_counter_ovf
C:\Users\farid\AppData\Local\Temp/ccKd0Zpl.s:1404   .text:0000058c debug_init
C:\Users\farid\AppData\Local\Temp/ccKd0Zpl.s:1422   .text:0000059a __vector_5

UNDEFINED SYMBOLS
__udivmodsi4
__do_copy_data
__do_clear_bss
