   1               		.file	"captouch.c"
   2               	__SREG__ = 0x3f
   3               	__SP_H__ = 0x3e
   4               	__SP_L__ = 0x3d
   5               	__CCP__  = 0x34
   6               	__tmp_reg__ = 0
   7               	__zero_reg__ = 1
  15               	.Ltext0:
  16               	.global	CapTouch_Struct_Init
  18               	CapTouch_Struct_Init:
  19               	.LFB6:
  20               	.LM1:
  21               	/* prologue: function */
  22               	/* frame size = 0 */
  23               	.LM2:
  24 0000 1092 0000 		sts CapTouch,__zero_reg__
  25               	.LBB55:
  26               	.LM3:
  27 0004 1092 0000 		sts CapTouch+1,__zero_reg__
  28               	.LM4:
  29 0008 1092 0000 		sts (CapTouch+3)+1,__zero_reg__
  30 000c 1092 0000 		sts CapTouch+3,__zero_reg__
  31               	.LM5:
  32 0010 1092 0000 		sts (CapTouch+7)+1,__zero_reg__
  33 0014 1092 0000 		sts CapTouch+7,__zero_reg__
  34               	.LM6:
  35 0018 1092 0000 		sts (CapTouch+11)+1,__zero_reg__
  36 001c 1092 0000 		sts CapTouch+11,__zero_reg__
  37               	.LM7:
  38 0020 1092 0000 		sts (CapTouch+15)+1,__zero_reg__
  39 0024 1092 0000 		sts CapTouch+15,__zero_reg__
  40               	.LM8:
  41 0028 8EE1      		ldi r24,lo8(30)
  42 002a 90E0      		ldi r25,hi8(30)
  43 002c 9093 0000 		sts (CapTouch+19)+1,r25
  44 0030 8093 0000 		sts CapTouch+19,r24
  45               	.LM9:
  46 0034 1092 0000 		sts CapTouch+23,__zero_reg__
  47               	.LM10:
  48 0038 1092 0000 		sts CapTouch+25,__zero_reg__
  49               	.LM11:
  50 003c 1092 0000 		sts CapTouch+27,__zero_reg__
  51 0040 1092 0000 		sts (CapTouch+27)+1,__zero_reg__
  52 0044 1092 0000 		sts (CapTouch+27)+2,__zero_reg__
  53 0048 1092 0000 		sts (CapTouch+27)+3,__zero_reg__
  54               	.LM12:
  55 004c 1092 0000 		sts CapTouch+35,__zero_reg__
  56 0050 1092 0000 		sts (CapTouch+35)+1,__zero_reg__
  57 0054 1092 0000 		sts (CapTouch+35)+2,__zero_reg__
  58 0058 1092 0000 		sts (CapTouch+35)+3,__zero_reg__
  59               	.LM13:
  60 005c 1092 0000 		sts CapTouch+49,__zero_reg__
  61               	.LM14:
  62 0060 1092 0000 		sts CapTouch+52,__zero_reg__
  63               	.LM15:
  64 0064 1092 0000 		sts CapTouch+2,__zero_reg__
  65               	.LM16:
  66 0068 1092 0000 		sts (CapTouch+5)+1,__zero_reg__
  67 006c 1092 0000 		sts CapTouch+5,__zero_reg__
  68               	.LM17:
  69 0070 1092 0000 		sts (CapTouch+9)+1,__zero_reg__
  70 0074 1092 0000 		sts CapTouch+9,__zero_reg__
  71               	.LM18:
  72 0078 1092 0000 		sts (CapTouch+13)+1,__zero_reg__
  73 007c 1092 0000 		sts CapTouch+13,__zero_reg__
  74               	.LM19:
  75 0080 1092 0000 		sts (CapTouch+17)+1,__zero_reg__
  76 0084 1092 0000 		sts CapTouch+17,__zero_reg__
  77               	.LM20:
  78 0088 9093 0000 		sts (CapTouch+21)+1,r25
  79 008c 8093 0000 		sts CapTouch+21,r24
  80               	.LM21:
  81 0090 1092 0000 		sts CapTouch+24,__zero_reg__
  82               	.LM22:
  83 0094 1092 0000 		sts CapTouch+26,__zero_reg__
  84               	.LM23:
  85 0098 1092 0000 		sts CapTouch+31,__zero_reg__
  86 009c 1092 0000 		sts (CapTouch+31)+1,__zero_reg__
  87 00a0 1092 0000 		sts (CapTouch+31)+2,__zero_reg__
  88 00a4 1092 0000 		sts (CapTouch+31)+3,__zero_reg__
  89               	.LM24:
  90 00a8 1092 0000 		sts CapTouch+39,__zero_reg__
  91 00ac 1092 0000 		sts (CapTouch+39)+1,__zero_reg__
  92 00b0 1092 0000 		sts (CapTouch+39)+2,__zero_reg__
  93 00b4 1092 0000 		sts (CapTouch+39)+3,__zero_reg__
  94               	.LM25:
  95 00b8 1092 0000 		sts CapTouch+50,__zero_reg__
  96               	.LM26:
  97 00bc 1092 0000 		sts CapTouch+53,__zero_reg__
  98 00c0 1092 0000 		sts CapTouch+51,__zero_reg__
  99 00c4 84E6      		ldi r24,lo8(100)
 100 00c6 90E0      		ldi r25,hi8(100)
 101 00c8 9093 0000 		sts (CapTouch+47)+1,r25
 102 00cc 8093 0000 		sts CapTouch+47,r24
 103 00d0 82E3      		ldi r24,lo8(50)
 104 00d2 90E0      		ldi r25,hi8(50)
 105 00d4 9093 0000 		sts (CapTouch+45)+1,r25
 106 00d8 8093 0000 		sts CapTouch+45,r24
 107 00dc 82E0      		ldi r24,lo8(2)
 108 00de 90E0      		ldi r25,hi8(2)
 109 00e0 9093 0000 		sts (CapTouch+43)+1,r25
 110 00e4 8093 0000 		sts CapTouch+43,r24
 111               	/* epilogue start */
 112               	.LBE55:
 113               	.LM27:
 114 00e8 0895      		ret
 115               	.LFE6:
 117               	.global	CapTouch_IIR_LPF_Struct_Init
 119               	CapTouch_IIR_LPF_Struct_Init:
 120               	.LFB7:
 121               	.LM28:
 122               	/* prologue: function */
 123               	/* frame size = 0 */
 124               	.LM29:
 125 00ea E0E0      		ldi r30,lo8(IIR_LPF)
 126 00ec F0E0      		ldi r31,hi8(IIR_LPF)
 127 00ee 92E0      		ldi r25,lo8(2)
 128               	.LVL0:
 129 00f0 80E0      		ldi r24,lo8(0)
 130               	.LVL1:
 131               	.LBB56:
 132               	.LM30:
 133 00f2 22E3      		ldi r18,lo8(50)
 134               	.L5:
 135 00f4 2083      		st Z,r18
 136               	.LM31:
 137 00f6 1182      		std Z+1,__zero_reg__
 138 00f8 1282      		std Z+2,__zero_reg__
 139 00fa 1382      		std Z+3,__zero_reg__
 140 00fc 1482      		std Z+4,__zero_reg__
 141               	.LM32:
 142 00fe 1582      		std Z+5,__zero_reg__
 143 0100 1682      		std Z+6,__zero_reg__
 144 0102 1782      		std Z+7,__zero_reg__
 145 0104 1086      		std Z+8,__zero_reg__
 146               	.LM33:
 147 0106 8917      		cp r24,r25
 148 0108 01F4      		brne .L4
 149               	.LM34:
 150 010a 982F      		mov r25,r24
 151 010c 9D5F      		subi r25,lo8(-(3))
 152               	.L4:
 153               	.LM35:
 154 010e 8F5F      		subi r24,lo8(-(1))
 155 0110 3996      		adiw r30,9
 156 0112 8630      		cpi r24,lo8(6)
 157 0114 01F4      		brne .L5
 158               	/* epilogue start */
 159               	.LBE56:
 160               	.LM36:
 161 0116 0895      		ret
 162               	.LFE7:
 164               	.global	CapTouch_IIR_LPF_Set_Alpha
 166               	CapTouch_IIR_LPF_Set_Alpha:
 167               	.LFB8:
 168               	.LM37:
 169               	.LVL2:
 170               	/* prologue: function */
 171               	/* frame size = 0 */
 172               	.LM38:
 173 0118 90E0      		ldi r25,lo8(0)
 174               	.LVL3:
 175 011a FC01      		movw r30,r24
 176 011c 23E0      		ldi r18,3
 177 011e EE0F      	1:	lsl r30
 178 0120 FF1F      		rol r31
 179 0122 2A95      		dec r18
 180 0124 01F4      		brne 1b
 181 0126 E80F      		add r30,r24
 182 0128 F91F      		adc r31,r25
 183 012a E050      		subi r30,lo8(-(IIR_LPF))
 184 012c F040      		sbci r31,hi8(-(IIR_LPF))
 185 012e 6083      		st Z,r22
 186               	/* epilogue start */
 187               	.LM39:
 188 0130 0895      		ret
 189               	.LFE8:
 191               	.global	CapTouch_IIR_LPF_Get_Alpha
 193               	CapTouch_IIR_LPF_Get_Alpha:
 194               	.LFB9:
 195               	.LM40:
 196               	.LVL4:
 197               	/* prologue: function */
 198               	/* frame size = 0 */
 199               	.LM41:
 200 0132 90E0      		ldi r25,lo8(0)
 201               	.LVL5:
 202 0134 FC01      		movw r30,r24
 203 0136 33E0      		ldi r19,3
 204 0138 EE0F      	1:	lsl r30
 205 013a FF1F      		rol r31
 206 013c 3A95      		dec r19
 207 013e 01F4      		brne 1b
 208 0140 E80F      		add r30,r24
 209 0142 F91F      		adc r31,r25
 210 0144 E050      		subi r30,lo8(-(IIR_LPF))
 211 0146 F040      		sbci r31,hi8(-(IIR_LPF))
 212               	.LM42:
 213 0148 8081      		ld r24,Z
 214               	.LVL6:
 215               	/* epilogue start */
 216 014a 0895      		ret
 217               	.LFE9:
 219               	.global	CapTouch_IIR_LPF_Get_Filtered_Value
 221               	CapTouch_IIR_LPF_Get_Filtered_Value:
 222               	.LFB10:
 223               	.LM43:
 224               	.LVL7:
 225 014c 6F92      		push r6
 226 014e 7F92      		push r7
 227 0150 8F92      		push r8
 228 0152 9F92      		push r9
 229 0154 AF92      		push r10
 230 0156 BF92      		push r11
 231 0158 CF92      		push r12
 232 015a DF92      		push r13
 233 015c EF92      		push r14
 234 015e FF92      		push r15
 235 0160 0F93      		push r16
 236 0162 1F93      		push r17
 237               	/* prologue: function */
 238               	/* frame size = 0 */
 239 0164 5A01      		movw r10,r20
 240 0166 6B01      		movw r12,r22
 241               	.LBB57:
 242               	.LBB58:
 243               	.LM44:
 244 0168 90E0      		ldi r25,lo8(0)
 245               	.LBE58:
 246               	.LBE57:
 247               	.LM45:
 248 016a 4C01      		movw r8,r24
 249               	.LVL8:
 250 016c 73E0      		ldi r23,3
 251 016e 880C      	1:	lsl r8
 252 0170 991C      		rol r9
 253 0172 7A95      		dec r23
 254 0174 01F4      		brne 1b
 255 0176 880E      		add r8,r24
 256 0178 991E      		adc r9,r25
 257 017a 80E0      		ldi r24,lo8(IIR_LPF)
 258 017c 90E0      		ldi r25,hi8(IIR_LPF)
 259 017e 880E      		add r8,r24
 260 0180 991E      		adc r9,r25
 261 0182 F401      		movw r30,r8
 262 0184 2081      		ld r18,Z
 263 0186 30E0      		ldi r19,lo8(0)
 264               	.LVL9:
 265 0188 40E0      		ldi r20,lo8(0)
 266 018a 50E0      		ldi r21,hi8(0)
 267               	.LVL10:
 268               	.LM46:
 269 018c 64E6      		ldi r22,lo8(100)
 270 018e E62E      		mov r14,r22
 271 0190 F12C      		mov r15,__zero_reg__
 272 0192 012D      		mov r16,__zero_reg__
 273 0194 112D      		mov r17,__zero_reg__
 274 0196 E21A      		sub r14,r18
 275 0198 F30A      		sbc r15,r19
 276 019a 040B      		sbc r16,r20
 277 019c 150B      		sbc r17,r21
 278               	.LVL11:
 279               	.LM47:
 280 019e C601      		movw r24,r12
 281 01a0 B501      		movw r22,r10
 282 01a2 0E94 0000 		call __mulsi3
 283               	.LVL12:
 284 01a6 5B01      		movw r10,r22
 285 01a8 6C01      		movw r12,r24
 286               	.LVL13:
 287 01aa 45E0      		ldi r20,lo8(5)
 288 01ac 642E      		mov r6,r20
 289 01ae 712C      		mov r7,__zero_reg__
 290               	.LVL14:
 291 01b0 680C      		add r6,r8
 292 01b2 791C      		adc r7,r9
 293 01b4 F401      		movw r30,r8
 294 01b6 2581      		ldd r18,Z+5
 295 01b8 3681      		ldd r19,Z+6
 296 01ba 4781      		ldd r20,Z+7
 297 01bc 5085      		ldd r21,Z+8
 298 01be C801      		movw r24,r16
 299 01c0 B701      		movw r22,r14
 300 01c2 0E94 0000 		call __mulsi3
 301 01c6 A60E      		add r10,r22
 302 01c8 B71E      		adc r11,r23
 303 01ca C81E      		adc r12,r24
 304 01cc D91E      		adc r13,r25
 305 01ce C601      		movw r24,r12
 306 01d0 B501      		movw r22,r10
 307 01d2 24E6      		ldi r18,lo8(100)
 308 01d4 30E0      		ldi r19,hi8(100)
 309 01d6 40E0      		ldi r20,hlo8(100)
 310 01d8 50E0      		ldi r21,hhi8(100)
 311 01da 0E94 0000 		call __divmodsi4
 312 01de CA01      		movw r24,r20
 313 01e0 F401      		movw r30,r8
 314 01e2 2583      		std Z+5,r18
 315 01e4 F301      		movw r30,r6
 316 01e6 3183      		std Z+1,r19
 317               	.LVL15:
 318 01e8 4283      		std Z+2,r20
 319 01ea 9383      		std Z+3,r25
 320               	.LM48:
 321 01ec B901      		movw r22,r18
 322               	/* epilogue start */
 323 01ee 1F91      		pop r17
 324 01f0 0F91      		pop r16
 325 01f2 FF90      		pop r15
 326 01f4 EF90      		pop r14
 327 01f6 DF90      		pop r13
 328 01f8 CF90      		pop r12
 329 01fa BF90      		pop r11
 330 01fc AF90      		pop r10
 331 01fe 9F90      		pop r9
 332 0200 8F90      		pop r8
 333 0202 7F90      		pop r7
 334 0204 6F90      		pop r6
 335 0206 0895      		ret
 336               	.LFE10:
 338               	.global	CapTouch_Set_Key_Pin_Input
 340               	CapTouch_Set_Key_Pin_Input:
 341               	.LFB11:
 342               	.LM49:
 343               	.LVL16:
 344               	/* prologue: function */
 345               	/* frame size = 0 */
 346               	.LM50:
 347 0208 97B1      		in r25,39-32
 348 020a 21E0      		ldi r18,lo8(1)
 349 020c 30E0      		ldi r19,hi8(1)
 350 020e 00C0      		rjmp 2f
 351 0210 220F      	1:	lsl r18
 352 0212 331F      		rol r19
 353 0214 8A95      	2:	dec r24
 354 0216 02F4      		brpl 1b
 355 0218 2095      		com r18
 356 021a 2923      		and r18,r25
 357 021c 27B9      		out 39-32,r18
 358               	/* epilogue start */
 359               	.LM51:
 360 021e 0895      		ret
 361               	.LFE11:
 363               	.global	CapTouch_Set_Key_Pin_Analog
 365               	CapTouch_Set_Key_Pin_Analog:
 366               	.LFB12:
 367               	.LM52:
 368               	.LVL17:
 369               	/* prologue: function */
 370               	/* frame size = 0 */
 371               	.LM53:
 372 0220 97B1      		in r25,39-32
 373 0222 21E0      		ldi r18,lo8(1)
 374 0224 30E0      		ldi r19,hi8(1)
 375 0226 00C0      		rjmp 2f
 376 0228 220F      	1:	lsl r18
 377 022a 331F      		rol r19
 378 022c 8A95      	2:	dec r24
 379 022e 02F4      		brpl 1b
 380 0230 2095      		com r18
 381 0232 9223      		and r25,r18
 382 0234 97B9      		out 39-32,r25
 383               	.LM54:
 384 0236 88B1      		in r24,40-32
 385               	.LVL18:
 386 0238 2823      		and r18,r24
 387 023a 28B9      		out 40-32,r18
 388               	/* epilogue start */
 389               	.LM55:
 390 023c 0895      		ret
 391               	.LFE12:
 393               	.global	CapTouch_Set_Key_Pin_Output
 395               	CapTouch_Set_Key_Pin_Output:
 396               	.LFB13:
 397               	.LM56:
 398               	.LVL19:
 399               	/* prologue: function */
 400               	/* frame size = 0 */
 401               	.LM57:
 402 023e 97B1      		in r25,39-32
 403 0240 21E0      		ldi r18,lo8(1)
 404 0242 30E0      		ldi r19,hi8(1)
 405 0244 00C0      		rjmp 2f
 406 0246 220F      	1:	lsl r18
 407 0248 331F      		rol r19
 408 024a 8A95      	2:	dec r24
 409 024c 02F4      		brpl 1b
 410 024e 922B      		or r25,r18
 411 0250 97B9      		out 39-32,r25
 412               	/* epilogue start */
 413               	.LM58:
 414 0252 0895      		ret
 415               	.LFE13:
 417               	.global	CapTouch_Set_Key_Pin_Output_Low
 419               	CapTouch_Set_Key_Pin_Output_Low:
 420               	.LFB14:
 421               	.LM59:
 422               	.LVL20:
 423               	/* prologue: function */
 424               	/* frame size = 0 */
 425               	.LM60:
 426 0254 98B1      		in r25,40-32
 427 0256 21E0      		ldi r18,lo8(1)
 428 0258 30E0      		ldi r19,hi8(1)
 429 025a 00C0      		rjmp 2f
 430 025c 220F      	1:	lsl r18
 431 025e 331F      		rol r19
 432 0260 8A95      	2:	dec r24
 433 0262 02F4      		brpl 1b
 434 0264 2095      		com r18
 435 0266 2923      		and r18,r25
 436 0268 28B9      		out 40-32,r18
 437               	/* epilogue start */
 438               	.LM61:
 439 026a 0895      		ret
 440               	.LFE14:
 442               	.global	CapTouch_Set_Key_Pin_Output_High
 444               	CapTouch_Set_Key_Pin_Output_High:
 445               	.LFB15:
 446               	.LM62:
 447               	.LVL21:
 448               	/* prologue: function */
 449               	/* frame size = 0 */
 450               	.LM63:
 451 026c 98B1      		in r25,40-32
 452 026e 21E0      		ldi r18,lo8(1)
 453 0270 30E0      		ldi r19,hi8(1)
 454 0272 00C0      		rjmp 2f
 455 0274 220F      	1:	lsl r18
 456 0276 331F      		rol r19
 457 0278 8A95      	2:	dec r24
 458 027a 02F4      		brpl 1b
 459 027c 922B      		or r25,r18
 460 027e 98B9      		out 40-32,r25
 461               	/* epilogue start */
 462               	.LM64:
 463 0280 0895      		ret
 464               	.LFE15:
 466               	.global	CapTouch_ADC_Register_Config
 468               	CapTouch_ADC_Register_Config:
 469               	.LFB16:
 470               	.LM65:
 471               	/* prologue: function */
 472               	/* frame size = 0 */
 473               	.LM66:
 474 0282 80E4      		ldi r24,lo8(64)
 475 0284 8093 7C00 		sts 124,r24
 476               	.LM67:
 477 0288 87E8      		ldi r24,lo8(-121)
 478 028a 8093 7A00 		sts 122,r24
 479               	/* epilogue start */
 480               	.LM68:
 481 028e 0895      		ret
 482               	.LFE16:
 484               	.global	CapTouch_ADC_Wakeup
 486               	CapTouch_ADC_Wakeup:
 487               	.LFB17:
 488               	.LM69:
 489               	/* prologue: function */
 490               	/* frame size = 0 */
 491               	.LM70:
 492 0290 EAE7      		ldi r30,lo8(122)
 493 0292 F0E0      		ldi r31,hi8(122)
 494 0294 8081      		ld r24,Z
 495 0296 8068      		ori r24,lo8(-128)
 496 0298 8083      		st Z,r24
 497               	/* epilogue start */
 498               	.LM71:
 499 029a 0895      		ret
 500               	.LFE17:
 502               	.global	CapTouch_ADC_Sleep
 504               	CapTouch_ADC_Sleep:
 505               	.LFB18:
 506               	.LM72:
 507               	/* prologue: function */
 508               	/* frame size = 0 */
 509               	.LM73:
 510 029c EAE7      		ldi r30,lo8(122)
 511 029e F0E0      		ldi r31,hi8(122)
 512 02a0 8081      		ld r24,Z
 513 02a2 8F77      		andi r24,lo8(127)
 514 02a4 8083      		st Z,r24
 515               	/* epilogue start */
 516               	.LM74:
 517 02a6 0895      		ret
 518               	.LFE18:
 520               	.global	CapTouch_ADC_Sample
 522               	CapTouch_ADC_Sample:
 523               	.LFB19:
 524               	.LM75:
 525               	.LVL22:
 526               	/* prologue: function */
 527               	/* frame size = 0 */
 528               	.LM76:
 529 02a8 8064      		ori r24,lo8(64)
 530               	.LVL23:
 531 02aa 8093 7C00 		sts 124,r24
 532               	.LM77:
 533 02ae 8091 7A00 		lds r24,122
 534 02b2 8738      		cpi r24,lo8(-121)
 535 02b4 01F0      		breq .L31
 536               	.LM78:
 537 02b6 87E8      		ldi r24,lo8(-121)
 538 02b8 8093 7A00 		sts 122,r24
 539               	.L31:
 540               	.LM79:
 541 02bc 8091 7A00 		lds r24,122
 542 02c0 8064      		ori r24,lo8(64)
 543 02c2 8093 7A00 		sts 122,r24
 544               	.L32:
 545               	.LM80:
 546 02c6 8091 7A00 		lds r24,122
 547 02ca 84FF      		sbrs r24,4
 548 02cc 00C0      		rjmp .L32
 549               	.LM81:
 550 02ce 8091 7A00 		lds r24,122
 551 02d2 8061      		ori r24,lo8(16)
 552 02d4 8093 7A00 		sts 122,r24
 553               	.LM82:
 554 02d8 2091 7800 		lds r18,120
 555 02dc 3091 7900 		lds r19,(120)+1
 556               	.LM83:
 557 02e0 C901      		movw r24,r18
 558               	/* epilogue start */
 559 02e2 0895      		ret
 560               	.LFE19:
 562               	.global	CapTouch_Precharge_SH_Cap
 564               	CapTouch_Precharge_SH_Cap:
 565               	.LFB20:
 566               	.LM84:
 567               	.LVL24:
 568               	/* prologue: function */
 569               	/* frame size = 0 */
 570               	.LBB59:
 571               	.LBB60:
 572               	.LM85:
 573 02e4 27B1      		in r18,39-32
 574 02e6 E0E0      		ldi r30,lo8(CapTouch_Pins)
 575 02e8 F0E0      		ldi r31,hi8(CapTouch_Pins)
 576 02ea E80F      		add r30,r24
 577 02ec F11D      		adc r31,__zero_reg__
 578 02ee 81E0      		ldi r24,lo8(1)
 579 02f0 90E0      		ldi r25,hi8(1)
 580               	.LVL25:
 581 02f2 0080      		ld r0,Z
 582 02f4 00C0      		rjmp 2f
 583 02f6 880F      	1:	lsl r24
 584 02f8 991F      		rol r25
 585 02fa 0A94      	2:	dec r0
 586 02fc 02F4      		brpl 1b
 587 02fe 282B      		or r18,r24
 588 0300 27B9      		out 39-32,r18
 589               	.LBE60:
 590               	.LBE59:
 591               	.LBB61:
 592               	.LBB62:
 593               	.LM86:
 594 0302 28B1      		in r18,40-32
 595 0304 8095      		com r24
 596 0306 8223      		and r24,r18
 597 0308 88B9      		out 40-32,r24
 598               	.LBE62:
 599               	.LBE61:
 600               	.LBB63:
 601               	.LM87:
 602 030a 86E0      		ldi r24,lo8(6)
 603 030c 0E94 0000 		call CapTouch_ADC_Sample
 604               	/* epilogue start */
 605               	.LBE63:
 606               	.LM88:
 607 0310 0895      		ret
 608               	.LFE20:
 610               	.global	CapTouch_ADC_Sample1
 612               	CapTouch_ADC_Sample1:
 613               	.LFB21:
 614               	.LM89:
 615               	.LVL26:
 616 0312 AF92      		push r10
 617 0314 BF92      		push r11
 618 0316 CF92      		push r12
 619 0318 DF92      		push r13
 620 031a EF92      		push r14
 621 031c FF92      		push r15
 622 031e 0F93      		push r16
 623 0320 1F93      		push r17
 624               	/* prologue: function */
 625               	/* frame size = 0 */
 626               	.LM90:
 627 0322 E82E      		mov r14,r24
 628 0324 FF24      		clr r15
 629 0326 F0E0      		ldi r31,lo8(CapTouch_Pins)
 630 0328 CF2E      		mov r12,r31
 631 032a F0E0      		ldi r31,hi8(CapTouch_Pins)
 632 032c DF2E      		mov r13,r31
 633 032e CE0C      		add r12,r14
 634 0330 DF1C      		adc r13,r15
 635 0332 F601      		movw r30,r12
 636 0334 8081      		ld r24,Z
 637               	.LVL27:
 638 0336 0E94 0000 		call CapTouch_Set_Key_Pin_Analog
 639               	.LM91:
 640 033a 5701      		movw r10,r14
 641 033c AA0C      		lsl r10
 642 033e BB1C      		rol r11
 643 0340 8501      		movw r16,r10
 644 0342 0050      		subi r16,lo8(-(CapTouch))
 645 0344 1040      		sbci r17,hi8(-(CapTouch))
 646 0346 F801      		movw r30,r16
 647 0348 1086      		std Z+8,__zero_reg__
 648 034a 1782      		std Z+7,__zero_reg__
 649               	.LBB64:
 650               	.LM92:
 651 034c F601      		movw r30,r12
 652 034e 8081      		ld r24,Z
 653 0350 0E94 0000 		call CapTouch_ADC_Sample
 654 0354 AC01      		movw r20,r24
 655 0356 F801      		movw r30,r16
 656 0358 9087      		std Z+8,r25
 657 035a 8783      		std Z+7,r24
 658               	.LBE64:
 659               	.LM93:
 660 035c 6627      		clr r22
 661 035e 57FD      		sbrc r21,7
 662 0360 6095      		com r22
 663 0362 762F      		mov r23,r22
 664 0364 8A2D      		mov r24,r10
 665 0366 8E0D      		add r24,r14
 666 0368 0E94 0000 		call CapTouch_IIR_LPF_Get_Filtered_Value
 667 036c F801      		movw r30,r16
 668 036e 7087      		std Z+8,r23
 669 0370 6783      		std Z+7,r22
 670               	/* epilogue start */
 671               	.LM94:
 672 0372 1F91      		pop r17
 673 0374 0F91      		pop r16
 674 0376 FF90      		pop r15
 675 0378 EF90      		pop r14
 676 037a DF90      		pop r13
 677 037c CF90      		pop r12
 678 037e BF90      		pop r11
 679 0380 AF90      		pop r10
 680 0382 0895      		ret
 681               	.LFE21:
 683               	.global	CapTouch_Precharge_Button
 685               	CapTouch_Precharge_Button:
 686               	.LFB22:
 687               	.LM95:
 688               	.LVL28:
 689               	/* prologue: function */
 690               	/* frame size = 0 */
 691               	.LBB65:
 692               	.LBB66:
 693               	.LM96:
 694 0384 27B1      		in r18,39-32
 695 0386 E0E0      		ldi r30,lo8(CapTouch_Pins)
 696 0388 F0E0      		ldi r31,hi8(CapTouch_Pins)
 697 038a E80F      		add r30,r24
 698 038c F11D      		adc r31,__zero_reg__
 699 038e 81E0      		ldi r24,lo8(1)
 700 0390 90E0      		ldi r25,hi8(1)
 701               	.LVL29:
 702 0392 0080      		ld r0,Z
 703 0394 00C0      		rjmp 2f
 704 0396 880F      	1:	lsl r24
 705 0398 991F      		rol r25
 706 039a 0A94      	2:	dec r0
 707 039c 02F4      		brpl 1b
 708 039e 282B      		or r18,r24
 709 03a0 27B9      		out 39-32,r18
 710               	.LBE66:
 711               	.LBE65:
 712               	.LBB67:
 713               	.LBB68:
 714               	.LM97:
 715 03a2 28B1      		in r18,40-32
 716 03a4 822B      		or r24,r18
 717 03a6 88B9      		out 40-32,r24
 718               	.LBE68:
 719               	.LBE67:
 720               	.LBB69:
 721               	.LM98:
 722 03a8 8FE0      		ldi r24,lo8(15)
 723 03aa 0E94 0000 		call CapTouch_ADC_Sample
 724               	/* epilogue start */
 725               	.LBE69:
 726               	.LM99:
 727 03ae 0895      		ret
 728               	.LFE22:
 730               	.global	CapTouch_ADC_Sample2
 732               	CapTouch_ADC_Sample2:
 733               	.LFB23:
 734               	.LM100:
 735               	.LVL30:
 736 03b0 AF92      		push r10
 737 03b2 BF92      		push r11
 738 03b4 CF92      		push r12
 739 03b6 DF92      		push r13
 740 03b8 EF92      		push r14
 741 03ba FF92      		push r15
 742 03bc 0F93      		push r16
 743 03be 1F93      		push r17
 744               	/* prologue: function */
 745               	/* frame size = 0 */
 746               	.LM101:
 747 03c0 E82E      		mov r14,r24
 748 03c2 FF24      		clr r15
 749 03c4 10E0      		ldi r17,lo8(CapTouch_Pins)
 750 03c6 A12E      		mov r10,r17
 751 03c8 10E0      		ldi r17,hi8(CapTouch_Pins)
 752 03ca B12E      		mov r11,r17
 753 03cc AE0C      		add r10,r14
 754 03ce BF1C      		adc r11,r15
 755 03d0 F501      		movw r30,r10
 756 03d2 8081      		ld r24,Z
 757               	.LVL31:
 758 03d4 0E94 0000 		call CapTouch_Set_Key_Pin_Analog
 759               	.LM102:
 760 03d8 8701      		movw r16,r14
 761 03da 000F      		lsl r16
 762 03dc 111F      		rol r17
 763 03de A0E0      		ldi r26,lo8(CapTouch)
 764 03e0 CA2E      		mov r12,r26
 765 03e2 A0E0      		ldi r26,hi8(CapTouch)
 766 03e4 DA2E      		mov r13,r26
 767 03e6 C00E      		add r12,r16
 768 03e8 D11E      		adc r13,r17
 769 03ea F601      		movw r30,r12
 770 03ec 1486      		std Z+12,__zero_reg__
 771 03ee 1386      		std Z+11,__zero_reg__
 772               	.LBB70:
 773               	.LM103:
 774 03f0 F501      		movw r30,r10
 775 03f2 8081      		ld r24,Z
 776 03f4 0E94 0000 		call CapTouch_ADC_Sample
 777 03f8 AC01      		movw r20,r24
 778 03fa F601      		movw r30,r12
 779 03fc 9487      		std Z+12,r25
 780 03fe 8387      		std Z+11,r24
 781               	.LBE70:
 782               	.LM104:
 783 0400 0E0D      		add r16,r14
 784 0402 1F1D      		adc r17,r15
 785 0404 6627      		clr r22
 786 0406 57FD      		sbrc r21,7
 787 0408 6095      		com r22
 788 040a 762F      		mov r23,r22
 789 040c 802F      		mov r24,r16
 790 040e 8F5F      		subi r24,lo8(-(1))
 791 0410 0E94 0000 		call CapTouch_IIR_LPF_Get_Filtered_Value
 792 0414 F601      		movw r30,r12
 793 0416 7487      		std Z+12,r23
 794 0418 6387      		std Z+11,r22
 795               	/* epilogue start */
 796               	.LM105:
 797 041a 1F91      		pop r17
 798 041c 0F91      		pop r16
 799 041e FF90      		pop r15
 800 0420 EF90      		pop r14
 801 0422 DF90      		pop r13
 802 0424 CF90      		pop r12
 803 0426 BF90      		pop r11
 804 0428 AF90      		pop r10
 805 042a 0895      		ret
 806               	.LFE23:
 808               	.global	CapTouch_Read_Delta
 810               	CapTouch_Read_Delta:
 811               	.LFB24:
 812               	.LM106:
 813               	.LVL32:
 814 042c EF92      		push r14
 815 042e FF92      		push r15
 816 0430 0F93      		push r16
 817 0432 1F93      		push r17
 818               	/* prologue: function */
 819               	/* frame size = 0 */
 820 0434 082F      		mov r16,r24
 821               	.LM107:
 822 0436 0E94 0000 		call CapTouch_Precharge_SH_Cap
 823               	.LVL33:
 824               	.LM108:
 825 043a 802F      		mov r24,r16
 826 043c 0E94 0000 		call CapTouch_ADC_Sample1
 827               	.LM109:
 828 0440 802F      		mov r24,r16
 829 0442 0E94 0000 		call CapTouch_Precharge_Button
 830               	.LM110:
 831 0446 802F      		mov r24,r16
 832 0448 0E94 0000 		call CapTouch_ADC_Sample2
 833               	.LM111:
 834 044c 10E0      		ldi r17,lo8(0)
 835 044e C801      		movw r24,r16
 836               	.LVL34:
 837 0450 880F      		lsl r24
 838 0452 991F      		rol r25
 839 0454 20E0      		ldi r18,lo8(CapTouch)
 840 0456 E22E      		mov r14,r18
 841 0458 20E0      		ldi r18,hi8(CapTouch)
 842 045a F22E      		mov r15,r18
 843 045c E80E      		add r14,r24
 844 045e F91E      		adc r15,r25
 845 0460 F701      		movw r30,r14
 846 0462 4781      		ldd r20,Z+7
 847 0464 5085      		ldd r21,Z+8
 848               	.LVL35:
 849               	.LM112:
 850 0466 2385      		ldd r18,Z+11
 851 0468 3485      		ldd r19,Z+12
 852 046a 421B      		sub r20,r18
 853 046c 530B      		sbc r21,r19
 854               	.LM113:
 855 046e 508B      		std Z+16,r21
 856 0470 4787      		std Z+15,r20
 857               	.LM114:
 858 0472 800F      		add r24,r16
 859 0474 911F      		adc r25,r17
 860 0476 6627      		clr r22
 861 0478 57FD      		sbrc r21,7
 862 047a 6095      		com r22
 863 047c 762F      		mov r23,r22
 864               	.LVL36:
 865 047e 8E5F      		subi r24,lo8(-(2))
 866 0480 0E94 0000 		call CapTouch_IIR_LPF_Get_Filtered_Value
 867               	.LVL37:
 868 0484 F701      		movw r30,r14
 869 0486 708B      		std Z+16,r23
 870 0488 6787      		std Z+15,r22
 871               	/* epilogue start */
 872               	.LM115:
 873 048a 1F91      		pop r17
 874 048c 0F91      		pop r16
 875 048e FF90      		pop r15
 876 0490 EF90      		pop r14
 877 0492 0895      		ret
 878               	.LFE24:
 880               	.global	CapTouch_Calibration
 882               	CapTouch_Calibration:
 883               	.LFB25:
 884               	.LM116:
 885 0494 CF92      		push r12
 886 0496 DF92      		push r13
 887 0498 EF92      		push r14
 888 049a FF92      		push r15
 889 049c 0F93      		push r16
 890 049e 1F93      		push r17
 891 04a0 DF93      		push r29
 892 04a2 CF93      		push r28
 893 04a4 CDB7      		in r28,__SP_L__
 894 04a6 DEB7      		in r29,__SP_H__
 895 04a8 2897      		sbiw r28,8
 896 04aa 0FB6      		in __tmp_reg__,__SREG__
 897 04ac F894      		cli
 898 04ae DEBF      		out __SP_H__,r29
 899 04b0 0FBE      		out __SREG__,__tmp_reg__
 900 04b2 CDBF      		out __SP_L__,r28
 901               	/* prologue: function */
 902               	/* frame size = 8 */
 903               	.LBB71:
 904               	.LM117:
 905 04b4 1982      		std Y+1,__zero_reg__
 906 04b6 1A82      		std Y+2,__zero_reg__
 907 04b8 1B82      		std Y+3,__zero_reg__
 908 04ba 1C82      		std Y+4,__zero_reg__
 909 04bc 1D82      		std Y+5,__zero_reg__
 910 04be 1E82      		std Y+6,__zero_reg__
 911 04c0 1F82      		std Y+7,__zero_reg__
 912 04c2 1886      		std Y+8,__zero_reg__
 913 04c4 CC24      		clr r12
 914 04c6 DD24      		clr r13
 915               	.LVL38:
 916               	.L46:
 917               	.LBE71:
 918               	.LBB72:
 919               	.LBB73:
 920               	.LM118:
 921 04c8 80E0      		ldi r24,lo8(0)
 922 04ca 0E94 0000 		call CapTouch_Read_Delta
 923               	.LM119:
 924 04ce 8091 0000 		lds r24,CapTouch+15
 925 04d2 9091 0000 		lds r25,(CapTouch+15)+1
 926 04d6 AA27      		clr r26
 927 04d8 97FD      		sbrc r25,7
 928 04da A095      		com r26
 929 04dc BA2F      		mov r27,r26
 930 04de 2981      		ldd r18,Y+1
 931 04e0 3A81      		ldd r19,Y+2
 932 04e2 4B81      		ldd r20,Y+3
 933 04e4 5C81      		ldd r21,Y+4
 934 04e6 280F      		add r18,r24
 935 04e8 391F      		adc r19,r25
 936 04ea 4A1F      		adc r20,r26
 937 04ec 5B1F      		adc r21,r27
 938 04ee 2983      		std Y+1,r18
 939 04f0 3A83      		std Y+2,r19
 940 04f2 4B83      		std Y+3,r20
 941 04f4 5C83      		std Y+4,r21
 942               	.LM120:
 943 04f6 81E0      		ldi r24,lo8(1)
 944 04f8 0E94 0000 		call CapTouch_Read_Delta
 945               	.LM121:
 946 04fc 8091 0000 		lds r24,CapTouch+17
 947 0500 9091 0000 		lds r25,(CapTouch+17)+1
 948 0504 AA27      		clr r26
 949 0506 97FD      		sbrc r25,7
 950 0508 A095      		com r26
 951 050a BA2F      		mov r27,r26
 952 050c ED80      		ldd r14,Y+5
 953 050e FE80      		ldd r15,Y+6
 954 0510 0F81      		ldd r16,Y+7
 955 0512 1885      		ldd r17,Y+8
 956 0514 E80E      		add r14,r24
 957 0516 F91E      		adc r15,r25
 958 0518 0A1F      		adc r16,r26
 959 051a 1B1F      		adc r17,r27
 960 051c ED82      		std Y+5,r14
 961 051e FE82      		std Y+6,r15
 962 0520 0F83      		std Y+7,r16
 963 0522 1887      		std Y+8,r17
 964               	.LBE73:
 965               	.LM122:
 966 0524 0894      		sec
 967 0526 C11C      		adc r12,__zero_reg__
 968 0528 D11C      		adc r13,__zero_reg__
 969 052a 80E2      		ldi r24,lo8(32)
 970 052c C816      		cp r12,r24
 971 052e D104      		cpc r13,__zero_reg__
 972 0530 01F4      		brne .L46
 973               	.LBE72:
 974               	.LBB74:
 975               	.LM123:
 976 0532 6981      		ldd r22,Y+1
 977 0534 7A81      		ldd r23,Y+2
 978 0536 8B81      		ldd r24,Y+3
 979 0538 9C81      		ldd r25,Y+4
 980 053a 20E2      		ldi r18,lo8(32)
 981 053c 30E0      		ldi r19,hi8(32)
 982 053e 40E0      		ldi r20,hlo8(32)
 983 0540 50E0      		ldi r21,hhi8(32)
 984 0542 0E94 0000 		call __divmodsi4
 985 0546 C901      		movw r24,r18
 986               	.LM124:
 987 0548 2091 0000 		lds r18,CapTouch+19
 988 054c 3091 0000 		lds r19,(CapTouch+19)+1
 989 0550 821B      		sub r24,r18
 990 0552 930B      		sbc r25,r19
 991 0554 9093 0000 		sts (CapTouch+3)+1,r25
 992 0558 8093 0000 		sts CapTouch+3,r24
 993 055c C801      		movw r24,r16
 994 055e B701      		movw r22,r14
 995 0560 20E2      		ldi r18,lo8(32)
 996 0562 30E0      		ldi r19,hi8(32)
 997 0564 40E0      		ldi r20,hlo8(32)
 998 0566 50E0      		ldi r21,hhi8(32)
 999 0568 0E94 0000 		call __divmodsi4
 1000 056c 8091 0000 		lds r24,CapTouch+21
 1001 0570 9091 0000 		lds r25,(CapTouch+21)+1
 1002 0574 281B      		sub r18,r24
 1003 0576 390B      		sbc r19,r25
 1004 0578 3093 0000 		sts (CapTouch+5)+1,r19
 1005 057c 2093 0000 		sts CapTouch+5,r18
 1006               	/* epilogue start */
 1007               	.LBE74:
 1008               	.LM125:
 1009 0580 2896      		adiw r28,8
 1010 0582 0FB6      		in __tmp_reg__,__SREG__
 1011 0584 F894      		cli
 1012 0586 DEBF      		out __SP_H__,r29
 1013 0588 0FBE      		out __SREG__,__tmp_reg__
 1014 058a CDBF      		out __SP_L__,r28
 1015 058c CF91      		pop r28
 1016 058e DF91      		pop r29
 1017 0590 1F91      		pop r17
 1018 0592 0F91      		pop r16
 1019 0594 FF90      		pop r15
 1020 0596 EF90      		pop r14
 1021 0598 DF90      		pop r13
 1022 059a CF90      		pop r12
 1023               	.LVL39:
 1024 059c 0895      		ret
 1025               	.LFE25:
 1027               	.global	CapTouch_Response
 1029               	CapTouch_Response:
 1030               	.LFB26:
 1031               	.LM126:
 1032               	.LVL40:
 1033 059e 0F93      		push r16
 1034 05a0 1F93      		push r17
 1035               	/* prologue: function */
 1036               	/* frame size = 0 */
 1037 05a2 082F      		mov r16,r24
 1038               	.LM127:
 1039 05a4 0E94 0000 		call CapTouch_Read_Delta
 1040               	.LVL41:
 1041               	.LM128:
 1042 05a8 10E0      		ldi r17,lo8(0)
 1043 05aa F801      		movw r30,r16
 1044               	.LVL42:
 1045 05ac EE0F      		lsl r30
 1046 05ae FF1F      		rol r31
 1047 05b0 E050      		subi r30,lo8(-(CapTouch))
 1048 05b2 F040      		sbci r31,hi8(-(CapTouch))
 1049 05b4 2381      		ldd r18,Z+3
 1050 05b6 3481      		ldd r19,Z+4
 1051 05b8 8785      		ldd r24,Z+15
 1052 05ba 9089      		ldd r25,Z+16
 1053 05bc F801      		movw r30,r16
 1054 05be E050      		subi r30,lo8(-(CapTouch))
 1055 05c0 F040      		sbci r31,hi8(-(CapTouch))
 1056 05c2 8217      		cp r24,r18
 1057 05c4 9307      		cpc r25,r19
 1058 05c6 04F4      		brge .L50
 1059               	.LM129:
 1060 05c8 81E0      		ldi r24,lo8(1)
 1061 05ca 8183      		std Z+1,r24
 1062 05cc 00C0      		rjmp .L52
 1063               	.L50:
 1064               	.LM130:
 1065 05ce 1182      		std Z+1,__zero_reg__
 1066               	.L52:
 1067               	/* epilogue start */
 1068               	.LM131:
 1069 05d0 1F91      		pop r17
 1070 05d2 0F91      		pop r16
 1071 05d4 0895      		ret
 1072               	.LFE26:
 1074               	.global	CapTouch_Check_Trigger
 1076               	CapTouch_Check_Trigger:
 1077               	.LFB27:
 1078               	.LM132:
 1079               	.LVL43:
 1080 05d6 1F93      		push r17
 1081               	/* prologue: function */
 1082               	/* frame size = 0 */
 1083 05d8 182F      		mov r17,r24
 1084               	.LM133:
 1085 05da 0E94 0000 		call CapTouch_Response
 1086               	.LVL44:
 1087               	.LM134:
 1088 05de A12F      		mov r26,r17
 1089 05e0 B0E0      		ldi r27,lo8(0)
 1090 05e2 FD01      		movw r30,r26
 1091 05e4 E050      		subi r30,lo8(-(CapTouch))
 1092 05e6 F040      		sbci r31,hi8(-(CapTouch))
 1093 05e8 9181      		ldd r25,Z+1
 1094               	.LVL45:
 1095               	.LM135:
 1096 05ea 818D      		ldd r24,Z+25
 1097 05ec 8823      		tst r24
 1098 05ee 01F4      		brne .L54
 1099 05f0 9130      		cpi r25,lo8(1)
 1100 05f2 01F4      		brne .L55
 1101               	.LM136:
 1102 05f4 11AA      		std Z+49,__zero_reg__
 1103               	.LM137:
 1104 05f6 978B      		std Z+23,r25
 1105 05f8 00C0      		rjmp .L56
 1106               	.L54:
 1107               	.LM138:
 1108 05fa 8130      		cpi r24,lo8(1)
 1109 05fc 01F4      		brne .L55
 1110 05fe 9923      		tst r25
 1111 0600 01F4      		brne .L57
 1112               	.LM139:
 1113 0602 84E0      		ldi r24,lo8(4)
 1114 0604 00C0      		rjmp .L59
 1115               	.L57:
 1116               	.LM140:
 1117 0606 9130      		cpi r25,lo8(1)
 1118 0608 01F4      		brne .L55
 1119               	.LM141:
 1120 060a 82E0      		ldi r24,lo8(2)
 1121               	.L59:
 1122 060c 878B      		std Z+23,r24
 1123 060e 00C0      		rjmp .L56
 1124               	.L55:
 1125               	.LM142:
 1126 0610 FD01      		movw r30,r26
 1127 0612 E050      		subi r30,lo8(-(CapTouch))
 1128 0614 F040      		sbci r31,hi8(-(CapTouch))
 1129 0616 178A      		std Z+23,__zero_reg__
 1130               	.L56:
 1131               	.LM143:
 1132 0618 A050      		subi r26,lo8(-(CapTouch))
 1133 061a B040      		sbci r27,hi8(-(CapTouch))
 1134 061c 5996      		adiw r26,25
 1135 061e 9C93      		st X,r25
 1136               	/* epilogue start */
 1137               	.LM144:
 1138 0620 1F91      		pop r17
 1139               	.LVL46:
 1140 0622 0895      		ret
 1141               	.LFE27:
 1143               	.global	CapTouch_Check_Touch_Duration
 1145               	CapTouch_Check_Touch_Duration:
 1146               	.LFB28:
 1147               	.LM145:
 1148               	.LVL47:
 1149 0624 CF92      		push r12
 1150 0626 DF92      		push r13
 1151 0628 EF92      		push r14
 1152 062a FF92      		push r15
 1153 062c 0F93      		push r16
 1154 062e 1F93      		push r17
 1155               	/* prologue: function */
 1156               	/* frame size = 0 */
 1157 0630 182F      		mov r17,r24
 1158 0632 042F      		mov r16,r20
 1159 0634 F52E      		mov r15,r21
 1160               	.LVL48:
 1161 0636 E62E      		mov r14,r22
 1162               	.LVL49:
 1163 0638 D72E      		mov r13,r23
 1164               	.LVL50:
 1165               	.LM146:
 1166 063a 0E94 0000 		call CapTouch_Check_Trigger
 1167               	.LVL51:
 1168               	.LM147:
 1169 063e 612F      		mov r22,r17
 1170 0640 70E0      		ldi r23,lo8(0)
 1171 0642 FB01      		movw r30,r22
 1172 0644 E050      		subi r30,lo8(-(CapTouch))
 1173 0646 F040      		sbci r31,hi8(-(CapTouch))
 1174 0648 1789      		ldd r17,Z+23
 1175               	.LVL52:
 1176 064a 1130      		cpi r17,lo8(1)
 1177 064c 01F4      		brne .L61
 1178               	.LM148:
 1179 064e 81E0      		ldi r24,lo8(1)
 1180 0650 90E0      		ldi r25,hi8(1)
 1181 0652 062E      		mov r0,r22
 1182 0654 00C0      		rjmp 2f
 1183 0656 880F      	1:	lsl r24
 1184 0658 991F      		rol r25
 1185 065a 0A94      	2:	dec r0
 1186 065c 02F4      		brpl 1b
 1187 065e 2091 0000 		lds r18,CapTouch+51
 1188 0662 282B      		or r18,r24
 1189 0664 2093 0000 		sts CapTouch+51,r18
 1190               	.LM149:
 1191 0668 FB01      		movw r30,r22
 1192 066a EE0F      		lsl r30
 1193 066c FF1F      		rol r31
 1194 066e EE0F      		lsl r30
 1195 0670 FF1F      		rol r31
 1196 0672 E050      		subi r30,lo8(-(CapTouch))
 1197 0674 F040      		sbci r31,hi8(-(CapTouch))
 1198 0676 DF01      		movw r26,r30
 1199 0678 9396      		adiw r26,35
 1200 067a 03A3      		std Z+35,r16
 1201 067c 1196      		adiw r26,1
 1202 067e FC92      		st X,r15
 1203 0680 1197      		sbiw r26,1
 1204 0682 1296      		adiw r26,2
 1205 0684 EC92      		st X,r14
 1206 0686 1297      		sbiw r26,2
 1207 0688 1396      		adiw r26,3
 1208 068a DC92      		st X,r13
 1209 068c 00C0      		rjmp .L66
 1210               	.L61:
 1211               	.LM150:
 1212 068e 1430      		cpi r17,lo8(4)
 1213 0690 01F0      		breq .L63
 1214 0692 1230      		cpi r17,lo8(2)
 1215 0694 01F4      		brne .L64
 1216               	.L63:
 1217               	.LM151:
 1218 0696 202F      		mov r18,r16
 1219               	.LVL53:
 1220 0698 3F2D      		mov r19,r15
 1221               	.LVL54:
 1222 069a 4E2D      		mov r20,r14
 1223               	.LVL55:
 1224 069c 5D2D      		mov r21,r13
 1225               	.LVL56:
 1226               	.LM152:
 1227 069e FB01      		movw r30,r22
 1228 06a0 EE0F      		lsl r30
 1229 06a2 FF1F      		rol r31
 1230 06a4 EE0F      		lsl r30
 1231 06a6 FF1F      		rol r31
 1232 06a8 E050      		subi r30,lo8(-(CapTouch))
 1233 06aa F040      		sbci r31,hi8(-(CapTouch))
 1234 06ac 83A1      		ldd r24,Z+35
 1235 06ae 94A1      		ldd r25,Z+36
 1236 06b0 A5A1      		ldd r26,Z+37
 1237 06b2 B6A1      		ldd r27,Z+38
 1238 06b4 6901      		movw r12,r18
 1239 06b6 7A01      		movw r14,r20
 1240 06b8 C81A      		sub r12,r24
 1241 06ba D90A      		sbc r13,r25
 1242 06bc EA0A      		sbc r14,r26
 1243 06be FB0A      		sbc r15,r27
 1244               	.LM153:
 1245 06c0 F7FC      		sbrc r15,7
 1246 06c2 00C0      		rjmp .L65
 1247               	.LVL57:
 1248               	.LM154:
 1249 06c4 C38E      		std Z+27,r12
 1250 06c6 D48E      		std Z+28,r13
 1251 06c8 E58E      		std Z+29,r14
 1252 06ca F68E      		std Z+30,r15
 1253               	.L65:
 1254               	.LM155:
 1255 06cc 1430      		cpi r17,lo8(4)
 1256 06ce 01F4      		brne .L66
 1257               	.LM156:
 1258 06d0 FB01      		movw r30,r22
 1259 06d2 EE0F      		lsl r30
 1260 06d4 FF1F      		rol r31
 1261 06d6 EE0F      		lsl r30
 1262 06d8 FF1F      		rol r31
 1263 06da E050      		subi r30,lo8(-(CapTouch))
 1264 06dc F040      		sbci r31,hi8(-(CapTouch))
 1265 06de 23A3      		std Z+35,r18
 1266 06e0 34A3      		std Z+36,r19
 1267 06e2 45A3      		std Z+37,r20
 1268 06e4 56A3      		std Z+38,r21
 1269               	.LM157:
 1270 06e6 81E0      		ldi r24,lo8(1)
 1271 06e8 90E0      		ldi r25,hi8(1)
 1272 06ea 00C0      		rjmp 2f
 1273 06ec 880F      	1:	lsl r24
 1274 06ee 991F      		rol r25
 1275 06f0 6A95      	2:	dec r22
 1276 06f2 02F4      		brpl 1b
 1277 06f4 8095      		com r24
 1278 06f6 2091 0000 		lds r18,CapTouch+51
 1279 06fa 8223      		and r24,r18
 1280 06fc 8093 0000 		sts CapTouch+51,r24
 1281 0700 00C0      		rjmp .L66
 1282               	.LVL58:
 1283               	.L64:
 1284               	.LM158:
 1285 0702 FB01      		movw r30,r22
 1286 0704 EE0F      		lsl r30
 1287 0706 FF1F      		rol r31
 1288 0708 EE0F      		lsl r30
 1289 070a FF1F      		rol r31
 1290 070c E050      		subi r30,lo8(-(CapTouch))
 1291 070e F040      		sbci r31,hi8(-(CapTouch))
 1292 0710 138E      		std Z+27,__zero_reg__
 1293 0712 148E      		std Z+28,__zero_reg__
 1294 0714 158E      		std Z+29,__zero_reg__
 1295 0716 168E      		std Z+30,__zero_reg__
 1296               	.LM159:
 1297 0718 13A2      		std Z+35,__zero_reg__
 1298 071a 14A2      		std Z+36,__zero_reg__
 1299 071c 15A2      		std Z+37,__zero_reg__
 1300 071e 16A2      		std Z+38,__zero_reg__
 1301               	.LVL59:
 1302               	.L66:
 1303               	/* epilogue start */
 1304               	.LM160:
 1305 0720 1F91      		pop r17
 1306 0722 0F91      		pop r16
 1307               	.LVL60:
 1308 0724 FF90      		pop r15
 1309               	.LVL61:
 1310 0726 EF90      		pop r14
 1311               	.LVL62:
 1312 0728 DF90      		pop r13
 1313               	.LVL63:
 1314 072a CF90      		pop r12
 1315               	.LVL64:
 1316 072c 0895      		ret
 1317               	.LFE28:
 1319               	.global	CapTouch_Scan_Sensors
 1321               	CapTouch_Scan_Sensors:
 1322               	.LFB29:
 1323               	.LM161:
 1324               	.LVL65:
 1325 072e CF92      		push r12
 1326 0730 DF92      		push r13
 1327 0732 EF92      		push r14
 1328 0734 FF92      		push r15
 1329 0736 0F93      		push r16
 1330 0738 1F93      		push r17
 1331               	/* prologue: function */
 1332               	/* frame size = 0 */
 1333 073a 6B01      		movw r12,r22
 1334 073c 7C01      		movw r14,r24
 1335               	.LBB75:
 1336               	.LBB76:
 1337               	.LM162:
 1338 073e 0AE7      		ldi r16,lo8(122)
 1339 0740 10E0      		ldi r17,hi8(122)
 1340 0742 F801      		movw r30,r16
 1341 0744 8081      		ld r24,Z
 1342 0746 8068      		ori r24,lo8(-128)
 1343 0748 8083      		st Z,r24
 1344               	.LBE76:
 1345               	.LBE75:
 1346               	.LM163:
 1347 074a 80E0      		ldi r24,lo8(0)
 1348 074c 0E94 0000 		call CapTouch_ADC_Sample
 1349               	.LVL66:
 1350               	.LBB77:
 1351               	.LBB78:
 1352               	.LM164:
 1353 0750 80E0      		ldi r24,lo8(0)
 1354 0752 B701      		movw r22,r14
 1355 0754 A601      		movw r20,r12
 1356 0756 0E94 0000 		call CapTouch_Check_Touch_Duration
 1357 075a 81E0      		ldi r24,lo8(1)
 1358 075c B701      		movw r22,r14
 1359 075e A601      		movw r20,r12
 1360 0760 0E94 0000 		call CapTouch_Check_Touch_Duration
 1361               	.LBE78:
 1362               	.LBE77:
 1363               	.LBB79:
 1364               	.LBB80:
 1365               	.LM165:
 1366 0764 F801      		movw r30,r16
 1367 0766 8081      		ld r24,Z
 1368 0768 8F77      		andi r24,lo8(127)
 1369 076a 8083      		st Z,r24
 1370               	/* epilogue start */
 1371               	.LBE80:
 1372               	.LBE79:
 1373               	.LM166:
 1374 076c 1F91      		pop r17
 1375 076e 0F91      		pop r16
 1376 0770 FF90      		pop r15
 1377 0772 EF90      		pop r14
 1378 0774 DF90      		pop r13
 1379 0776 CF90      		pop r12
 1380               	.LVL67:
 1381 0778 0895      		ret
 1382               	.LFE29:
 1384               	.global	CapTouch_Short_Pressed
 1386               	CapTouch_Short_Pressed:
 1387               	.LFB30:
 1388               	.LM167:
 1389               	.LVL68:
 1390               	/* prologue: function */
 1391               	/* frame size = 0 */
 1392               	.LM168:
 1393 077a A82F      		mov r26,r24
 1394 077c B0E0      		ldi r27,lo8(0)
 1395 077e FD01      		movw r30,r26
 1396 0780 E050      		subi r30,lo8(-(CapTouch))
 1397 0782 F040      		sbci r31,hi8(-(CapTouch))
 1398 0784 8789      		ldd r24,Z+23
 1399               	.LVL69:
 1400 0786 8430      		cpi r24,lo8(4)
 1401 0788 01F4      		brne .L70
 1402               	.LM169:
 1403 078a AA0F      		lsl r26
 1404 078c BB1F      		rol r27
 1405 078e AA0F      		lsl r26
 1406 0790 BB1F      		rol r27
 1407 0792 A050      		subi r26,lo8(-(CapTouch))
 1408 0794 B040      		sbci r27,hi8(-(CapTouch))
 1409 0796 5B96      		adiw r26,27
 1410 0798 2D91      		ld r18,X+
 1411 079a 3D91      		ld r19,X+
 1412 079c 4D91      		ld r20,X+
 1413 079e 5C91      		ld r21,X
 1414 07a0 5E97      		sbiw r26,27+3
 1415 07a2 8091 0000 		lds r24,CapTouch+43
 1416 07a6 9091 0000 		lds r25,(CapTouch+43)+1
 1417 07aa A0E0      		ldi r26,lo8(0)
 1418 07ac B0E0      		ldi r27,hi8(0)
 1419 07ae 2817      		cp r18,r24
 1420 07b0 3907      		cpc r19,r25
 1421 07b2 4A07      		cpc r20,r26
 1422 07b4 5B07      		cpc r21,r27
 1423 07b6 04F0      		brlt .L70
 1424 07b8 60E0      		ldi r22,lo8(0)
 1425               	.LVL70:
 1426 07ba 8091 0000 		lds r24,CapTouch+45
 1427 07be 9091 0000 		lds r25,(CapTouch+45)+1
 1428 07c2 A0E0      		ldi r26,lo8(0)
 1429 07c4 B0E0      		ldi r27,hi8(0)
 1430 07c6 8217      		cp r24,r18
 1431 07c8 9307      		cpc r25,r19
 1432 07ca A407      		cpc r26,r20
 1433 07cc B507      		cpc r27,r21
 1434 07ce 04F0      		brlt .L72
 1435 07d0 61E0      		ldi r22,lo8(1)
 1436 07d2 00C0      		rjmp .L72
 1437               	.LVL71:
 1438               	.L70:
 1439 07d4 60E0      		ldi r22,lo8(0)
 1440               	.LVL72:
 1441               	.L72:
 1442               	.LM170:
 1443 07d6 862F      		mov r24,r22
 1444               	/* epilogue start */
 1445 07d8 0895      		ret
 1446               	.LFE30:
 1448               	.global	CapTouch_Long_Pressed
 1450               	CapTouch_Long_Pressed:
 1451               	.LFB31:
 1452               	.LM171:
 1453               	.LVL73:
 1454               	/* prologue: function */
 1455               	/* frame size = 0 */
 1456               	.LM172:
 1457 07da 682F      		mov r22,r24
 1458 07dc 70E0      		ldi r23,lo8(0)
 1459 07de FB01      		movw r30,r22
 1460 07e0 EE0F      		lsl r30
 1461 07e2 FF1F      		rol r31
 1462 07e4 EE0F      		lsl r30
 1463 07e6 FF1F      		rol r31
 1464 07e8 E050      		subi r30,lo8(-(CapTouch))
 1465 07ea F040      		sbci r31,hi8(-(CapTouch))
 1466 07ec 8091 0000 		lds r24,CapTouch+47
 1467 07f0 9091 0000 		lds r25,(CapTouch+47)+1
 1468               	.LVL74:
 1469 07f4 A0E0      		ldi r26,lo8(0)
 1470 07f6 B0E0      		ldi r27,hi8(0)
 1471 07f8 238D      		ldd r18,Z+27
 1472 07fa 348D      		ldd r19,Z+28
 1473 07fc 458D      		ldd r20,Z+29
 1474 07fe 568D      		ldd r21,Z+30
 1475 0800 8217      		cp r24,r18
 1476 0802 9307      		cpc r25,r19
 1477 0804 A407      		cpc r26,r20
 1478 0806 B507      		cpc r27,r21
 1479 0808 04F4      		brge .L75
 1480 080a FB01      		movw r30,r22
 1481 080c E050      		subi r30,lo8(-(CapTouch))
 1482 080e F040      		sbci r31,hi8(-(CapTouch))
 1483 0810 81A9      		ldd r24,Z+49
 1484 0812 8823      		tst r24
 1485 0814 01F4      		brne .L75
 1486               	.LM173:
 1487 0816 81E0      		ldi r24,lo8(1)
 1488 0818 81AB      		std Z+49,r24
 1489 081a 0895      		ret
 1490               	.L75:
 1491 081c 80E0      		ldi r24,lo8(0)
 1492               	.LVL75:
 1493               	.LVL76:
 1494               	.LM174:
 1495 081e 0895      		ret
 1496               	.LFE31:
 1498               	.global	CapTouch_Constant_Pressed
 1500               	CapTouch_Constant_Pressed:
 1501               	.LFB32:
 1502               	.LM175:
 1503               	.LVL77:
 1504 0820 CF93      		push r28
 1505 0822 DF93      		push r29
 1506               	/* prologue: function */
 1507               	/* frame size = 0 */
 1508               	.LM176:
 1509 0824 C82F      		mov r28,r24
 1510 0826 D0E0      		ldi r29,lo8(0)
 1511 0828 FE01      		movw r30,r28
 1512 082a E050      		subi r30,lo8(-(CapTouch))
 1513 082c F040      		sbci r31,hi8(-(CapTouch))
 1514 082e 8789      		ldd r24,Z+23
 1515               	.LVL78:
 1516 0830 8230      		cpi r24,lo8(2)
 1517 0832 01F0      		breq .L79
 1518 0834 60E0      		ldi r22,lo8(0)
 1519               	.LVL79:
 1520 0836 00C0      		rjmp .L80
 1521               	.LVL80:
 1522               	.L79:
 1523 0838 60E0      		ldi r22,lo8(0)
 1524               	.LVL81:
 1525 083a CC0F      		lsl r28
 1526 083c DD1F      		rol r29
 1527 083e CC0F      		lsl r28
 1528 0840 DD1F      		rol r29
 1529 0842 C050      		subi r28,lo8(-(CapTouch))
 1530 0844 D040      		sbci r29,hi8(-(CapTouch))
 1531 0846 8091 0000 		lds r24,CapTouch+43
 1532 084a 9091 0000 		lds r25,(CapTouch+43)+1
 1533 084e A0E0      		ldi r26,lo8(0)
 1534 0850 B0E0      		ldi r27,hi8(0)
 1535 0852 2B8D      		ldd r18,Y+27
 1536 0854 3C8D      		ldd r19,Y+28
 1537 0856 4D8D      		ldd r20,Y+29
 1538 0858 5E8D      		ldd r21,Y+30
 1539 085a 8217      		cp r24,r18
 1540 085c 9307      		cpc r25,r19
 1541 085e A407      		cpc r26,r20
 1542 0860 B507      		cpc r27,r21
 1543 0862 04F4      		brge .L80
 1544 0864 61E0      		ldi r22,lo8(1)
 1545               	.L80:
 1546               	.LM177:
 1547 0866 862F      		mov r24,r22
 1548               	/* epilogue start */
 1549 0868 DF91      		pop r29
 1550 086a CF91      		pop r28
 1551 086c 0895      		ret
 1552               	.LFE32:
 1554               	.global	CapTouch_Short_Pressed_Filtered
 1556               	CapTouch_Short_Pressed_Filtered:
 1557               	.LFB33:
 1558               	.LM178:
 1559               	.LVL82:
 1560 086e CF93      		push r28
 1561 0870 DF93      		push r29
 1562               	/* prologue: function */
 1563               	/* frame size = 0 */
 1564 0872 782F      		mov r23,r24
 1565               	.LM179:
 1566 0874 E0E0      		ldi r30,lo8(CapTouch+27)
 1567 0876 F0E0      		ldi r31,hi8(CapTouch+27)
 1568 0878 61E0      		ldi r22,lo8(1)
 1569               	.LVL83:
 1570               	.LBB81:
 1571               	.LM180:
 1572 087a C82F      		mov r28,r24
 1573 087c D0E0      		ldi r29,lo8(0)
 1574               	.LVL84:
 1575 087e 9E01      		movw r18,r28
 1576 0880 220F      		lsl r18
 1577 0882 331F      		rol r19
 1578 0884 220F      		lsl r18
 1579 0886 331F      		rol r19
 1580 0888 A901      		movw r20,r18
 1581 088a 4E0F      		add r20,r30
 1582 088c 5F1F      		adc r21,r31
 1583 088e 00C0      		rjmp .L84
 1584               	.LVL85:
 1585               	.L86:
 1586               	.LM181:
 1587 0890 8081      		ld r24,Z
 1588 0892 9181      		ldd r25,Z+1
 1589 0894 A281      		ldd r26,Z+2
 1590 0896 B381      		ldd r27,Z+3
 1591 0898 0097      		sbiw r24,0
 1592 089a A105      		cpc r26,__zero_reg__
 1593 089c B105      		cpc r27,__zero_reg__
 1594 089e 01F0      		breq .L85
 1595 08a0 60E0      		ldi r22,lo8(0)
 1596               	.L85:
 1597 08a2 3496      		adiw r30,4
 1598               	.LVL86:
 1599               	.L84:
 1600               	.LM182:
 1601 08a4 E417      		cp r30,r20
 1602 08a6 F507      		cpc r31,r21
 1603 08a8 01F4      		brne .L86
 1604               	.LBE81:
 1605               	.LM183:
 1606 08aa 6130      		cpi r22,lo8(1)
 1607 08ac 01F4      		brne .L87
 1608               	.LBB82:
 1609               	.LBB83:
 1610               	.LM184:
 1611 08ae C050      		subi r28,lo8(-(CapTouch))
 1612 08b0 D040      		sbci r29,hi8(-(CapTouch))
 1613               	.LVL87:
 1614 08b2 8F89      		ldd r24,Y+23
 1615 08b4 8430      		cpi r24,lo8(4)
 1616 08b6 01F4      		brne .L87
 1617               	.LM185:
 1618 08b8 2050      		subi r18,lo8(-(CapTouch))
 1619 08ba 3040      		sbci r19,hi8(-(CapTouch))
 1620 08bc F901      		movw r30,r18
 1621 08be 238D      		ldd r18,Z+27
 1622 08c0 348D      		ldd r19,Z+28
 1623 08c2 458D      		ldd r20,Z+29
 1624 08c4 568D      		ldd r21,Z+30
 1625 08c6 8091 0000 		lds r24,CapTouch+43
 1626 08ca 9091 0000 		lds r25,(CapTouch+43)+1
 1627 08ce A0E0      		ldi r26,lo8(0)
 1628 08d0 B0E0      		ldi r27,hi8(0)
 1629 08d2 2817      		cp r18,r24
 1630 08d4 3907      		cpc r19,r25
 1631 08d6 4A07      		cpc r20,r26
 1632 08d8 5B07      		cpc r21,r27
 1633 08da 04F0      		brlt .L87
 1634 08dc 8091 0000 		lds r24,CapTouch+45
 1635 08e0 9091 0000 		lds r25,(CapTouch+45)+1
 1636 08e4 A0E0      		ldi r26,lo8(0)
 1637 08e6 B0E0      		ldi r27,hi8(0)
 1638 08e8 8217      		cp r24,r18
 1639 08ea 9307      		cpc r25,r19
 1640 08ec A407      		cpc r26,r20
 1641 08ee B507      		cpc r27,r21
 1642 08f0 04F0      		brlt .L87
 1643               	.LBE83:
 1644               	.LBE82:
 1645               	.LBB84:
 1646               	.LM186:
 1647 08f2 272F      		mov r18,r23
 1648               	.LVL88:
 1649 08f4 2F5F      		subi r18,lo8(-(1))
 1650 08f6 31E0      		ldi r19,lo8(1)
 1651               	.LVL89:
 1652 08f8 00C0      		rjmp .L88
 1653               	.LVL90:
 1654               	.L90:
 1655               	.LM187:
 1656 08fa E22F      		mov r30,r18
 1657 08fc F0E0      		ldi r31,lo8(0)
 1658 08fe EE0F      		lsl r30
 1659 0900 FF1F      		rol r31
 1660 0902 EE0F      		lsl r30
 1661 0904 FF1F      		rol r31
 1662               	.LVL91:
 1663 0906 E050      		subi r30,lo8(-(CapTouch))
 1664 0908 F040      		sbci r31,hi8(-(CapTouch))
 1665               	.LVL92:
 1666 090a 838D      		ldd r24,Z+27
 1667 090c 948D      		ldd r25,Z+28
 1668 090e A58D      		ldd r26,Z+29
 1669 0910 B68D      		ldd r27,Z+30
 1670 0912 0097      		sbiw r24,0
 1671 0914 A105      		cpc r26,__zero_reg__
 1672 0916 B105      		cpc r27,__zero_reg__
 1673 0918 01F0      		breq .L89
 1674 091a 30E0      		ldi r19,lo8(0)
 1675               	.L89:
 1676               	.LM188:
 1677 091c 2F5F      		subi r18,lo8(-(1))
 1678               	.LVL93:
 1679               	.L88:
 1680 091e 2230      		cpi r18,lo8(2)
 1681 0920 00F0      		brlo .L90
 1682 0922 00C0      		rjmp .L91
 1683               	.LVL94:
 1684               	.L87:
 1685 0924 30E0      		ldi r19,lo8(0)
 1686               	.LVL95:
 1687               	.L91:
 1688               	.LBE84:
 1689               	.LM189:
 1690 0926 832F      		mov r24,r19
 1691               	/* epilogue start */
 1692 0928 DF91      		pop r29
 1693               	.LVL96:
 1694 092a CF91      		pop r28
 1695               	.LVL97:
 1696 092c 0895      		ret
 1697               	.LFE33:
 1699               	.global	CapTouch_Long_Pressed_Filtered
 1701               	CapTouch_Long_Pressed_Filtered:
 1702               	.LFB34:
 1703               	.LM190:
 1704 092e CF92      		push r12
 1705 0930 DF92      		push r13
 1706 0932 EF92      		push r14
 1707 0934 FF92      		push r15
 1708 0936 0F93      		push r16
 1709 0938 1F93      		push r17
 1710 093a CF93      		push r28
 1711 093c DF93      		push r29
 1712               	/* prologue: function */
 1713               	/* frame size = 0 */
 1714               	.LBB85:
 1715               	.LBB86:
 1716               	.LBB87:
 1717               	.LM191:
 1718 093e 6091 0000 		lds r22,CapTouch+47
 1719 0942 7091 0000 		lds r23,(CapTouch+47)+1
 1720 0946 9B01      		movw r18,r22
 1721 0948 40E0      		ldi r20,lo8(0)
 1722 094a 50E0      		ldi r21,hi8(0)
 1723 094c 8091 0000 		lds r24,CapTouch+27
 1724 0950 9091 0000 		lds r25,(CapTouch+27)+1
 1725 0954 A091 0000 		lds r26,(CapTouch+27)+2
 1726 0958 B091 0000 		lds r27,(CapTouch+27)+3
 1727 095c 2817      		cp r18,r24
 1728 095e 3907      		cpc r19,r25
 1729 0960 4A07      		cpc r20,r26
 1730 0962 5B07      		cpc r21,r27
 1731 0964 04F4      		brge .L94
 1732 0966 8091 0000 		lds r24,CapTouch+49
 1733 096a 8823      		tst r24
 1734 096c 01F4      		brne .L94
 1735               	.LM192:
 1736 096e 81E0      		ldi r24,lo8(1)
 1737 0970 8093 0000 		sts CapTouch+49,r24
 1738 0974 11E0      		ldi r17,lo8(1)
 1739               	.LVL98:
 1740 0976 91E0      		ldi r25,lo8(1)
 1741               	.LVL99:
 1742 0978 00C0      		rjmp .L95
 1743               	.LVL100:
 1744               	.L94:
 1745 097a 10E0      		ldi r17,lo8(0)
 1746               	.LVL101:
 1747 097c 90E0      		ldi r25,lo8(0)
 1748               	.LVL102:
 1749               	.L95:
 1750               	.LM193:
 1751 097e C090 0000 		lds r12,CapTouch+31
 1752 0982 D090 0000 		lds r13,(CapTouch+31)+1
 1753 0986 E090 0000 		lds r14,(CapTouch+31)+2
 1754 098a F090 0000 		lds r15,(CapTouch+31)+3
 1755 098e 2C15      		cp r18,r12
 1756 0990 3D05      		cpc r19,r13
 1757 0992 4E05      		cpc r20,r14
 1758 0994 5F05      		cpc r21,r15
 1759 0996 04F4      		brge .L96
 1760 0998 8091 0000 		lds r24,CapTouch+50
 1761 099c 8823      		tst r24
 1762 099e 01F4      		brne .L96
 1763               	.LM194:
 1764 09a0 81E0      		ldi r24,lo8(1)
 1765 09a2 8093 0000 		sts CapTouch+50,r24
 1766               	.LBE87:
 1767               	.LBE86:
 1768               	.LM195:
 1769 09a6 1260      		ori r17,lo8(2)
 1770 09a8 01E0      		ldi r16,lo8(1)
 1771               	.LVL103:
 1772 09aa 00C0      		rjmp .L104
 1773               	.LVL104:
 1774               	.L96:
 1775 09ac 00E0      		ldi r16,lo8(0)
 1776               	.LVL105:
 1777               	.LBE85:
 1778               	.LM196:
 1779 09ae 9130      		cpi r25,lo8(1)
 1780 09b0 01F4      		brne .L98
 1781               	.L104:
 1782               	.LBB88:
 1783               	.LM197:
 1784 09b2 7695      		lsr r23
 1785 09b4 6795      		ror r22
 1786 09b6 AB01      		movw r20,r22
 1787 09b8 60E0      		ldi r22,lo8(0)
 1788 09ba 70E0      		ldi r23,hi8(0)
 1789 09bc C0E0      		ldi r28,lo8(CapTouch+27)
 1790 09be D0E0      		ldi r29,hi8(CapTouch+27)
 1791 09c0 20E0      		ldi r18,lo8(0)
 1792 09c2 30E0      		ldi r19,hi8(0)
 1793 09c4 00C0      		rjmp .L99
 1794               	.L101:
 1795 09c6 F901      		movw r30,r18
 1796               	.LBB89:
 1797               	.LBB90:
 1798               	.LM198:
 1799 09c8 8991      		ld r24,Y+
 1800 09ca 9991      		ld r25,Y+
 1801 09cc A991      		ld r26,Y+
 1802 09ce B991      		ld r27,Y+
 1803 09d0 2F5F      		subi r18,lo8(-(1))
 1804 09d2 3F4F      		sbci r19,hi8(-(1))
 1805               	.LBE90:
 1806               	.LBE89:
 1807               	.LM199:
 1808 09d4 8417      		cp r24,r20
 1809 09d6 9507      		cpc r25,r21
 1810 09d8 A607      		cpc r26,r22
 1811 09da B707      		cpc r27,r23
 1812 09dc 04F0      		brlt .L99
 1813               	.LM200:
 1814 09de 81E0      		ldi r24,lo8(1)
 1815 09e0 90E0      		ldi r25,hi8(1)
 1816 09e2 0E2E      		mov r0,r30
 1817 09e4 00C0      		rjmp 2f
 1818 09e6 880F      	1:	lsl r24
 1819 09e8 991F      		rol r25
 1820 09ea 0A94      	2:	dec r0
 1821 09ec 02F4      		brpl 1b
 1822 09ee 182B      		or r17,r24
 1823               	.LM201:
 1824 09f0 E050      		subi r30,lo8(-(CapTouch))
 1825 09f2 F040      		sbci r31,hi8(-(CapTouch))
 1826 09f4 81E0      		ldi r24,lo8(1)
 1827 09f6 81AB      		std Z+49,r24
 1828 09f8 00C0      		rjmp .L100
 1829               	.L99:
 1830               	.LM202:
 1831 09fa 2017      		cp r18,r16
 1832 09fc 00F0      		brlo .L101
 1833               	.L100:
 1834               	.LBE88:
 1835               	.LBB91:
 1836               	.LM203:
 1837 09fe 0023      		tst r16
 1838 0a00 01F4      		brne .L98
 1839               	.LM204:
 1840 0a02 C416      		cp r12,r20
 1841 0a04 D506      		cpc r13,r21
 1842 0a06 E606      		cpc r14,r22
 1843 0a08 F706      		cpc r15,r23
 1844 0a0a 04F0      		brlt .L98
 1845               	.LM205:
 1846 0a0c 1260      		ori r17,lo8(2)
 1847               	.LM206:
 1848 0a0e 81E0      		ldi r24,lo8(1)
 1849 0a10 8093 0000 		sts CapTouch+50,r24
 1850               	.L98:
 1851               	.LBE91:
 1852               	.LM207:
 1853 0a14 812F      		mov r24,r17
 1854               	/* epilogue start */
 1855 0a16 DF91      		pop r29
 1856 0a18 CF91      		pop r28
 1857 0a1a 1F91      		pop r17
 1858               	.LVL106:
 1859 0a1c 0F91      		pop r16
 1860               	.LVL107:
 1861 0a1e FF90      		pop r15
 1862 0a20 EF90      		pop r14
 1863 0a22 DF90      		pop r13
 1864 0a24 CF90      		pop r12
 1865 0a26 0895      		ret
 1866               	.LFE34:
 1868               	.global	CapTouch_Set_Short_Press_Min_Time
 1870               	CapTouch_Set_Short_Press_Min_Time:
 1871               	.LFB35:
 1872               	.LM208:
 1873               	.LVL108:
 1874               	/* prologue: function */
 1875               	/* frame size = 0 */
 1876               	.LM209:
 1877 0a28 8093 0000 		sts CapTouch+43,r24
 1878 0a2c 1092 0000 		sts CapTouch+44,__zero_reg__
 1879               	/* epilogue start */
 1880               	.LM210:
 1881 0a30 0895      		ret
 1882               	.LFE35:
 1884               	.global	CapTouch_Set_Short_Press_Max_Time
 1886               	CapTouch_Set_Short_Press_Max_Time:
 1887               	.LFB36:
 1888               	.LM211:
 1889               	.LVL109:
 1890               	/* prologue: function */
 1891               	/* frame size = 0 */
 1892               	.LM212:
 1893 0a32 8093 0000 		sts CapTouch+45,r24
 1894 0a36 1092 0000 		sts CapTouch+46,__zero_reg__
 1895               	/* epilogue start */
 1896               	.LM213:
 1897 0a3a 0895      		ret
 1898               	.LFE36:
 1900               	.global	CapTouch_Set_Long_Press_Time
 1902               	CapTouch_Set_Long_Press_Time:
 1903               	.LFB37:
 1904               	.LM214:
 1905               	.LVL110:
 1906               	/* prologue: function */
 1907               	/* frame size = 0 */
 1908               	.LM215:
 1909 0a3c 8093 0000 		sts CapTouch+47,r24
 1910 0a40 1092 0000 		sts CapTouch+48,__zero_reg__
 1911               	/* epilogue start */
 1912               	.LM216:
 1913 0a44 0895      		ret
 1914               	.LFE37:
 1916               	.global	CapTouch_Get_RawADC1
 1918               	CapTouch_Get_RawADC1:
 1919               	.LFB38:
 1920               	.LM217:
 1921               	.LVL111:
 1922               	/* prologue: function */
 1923               	/* frame size = 0 */
 1924               	.LM218:
 1925 0a46 E82F      		mov r30,r24
 1926 0a48 F0E0      		ldi r31,lo8(0)
 1927 0a4a EE0F      		lsl r30
 1928 0a4c FF1F      		rol r31
 1929 0a4e E050      		subi r30,lo8(-(CapTouch))
 1930 0a50 F040      		sbci r31,hi8(-(CapTouch))
 1931               	.LM219:
 1932 0a52 8781      		ldd r24,Z+7
 1933               	.LVL112:
 1934 0a54 9085      		ldd r25,Z+8
 1935               	/* epilogue start */
 1936 0a56 0895      		ret
 1937               	.LFE38:
 1939               	.global	CapTouch_Get_RawADC2
 1941               	CapTouch_Get_RawADC2:
 1942               	.LFB39:
 1943               	.LM220:
 1944               	.LVL113:
 1945               	/* prologue: function */
 1946               	/* frame size = 0 */
 1947               	.LM221:
 1948 0a58 E82F      		mov r30,r24
 1949 0a5a F0E0      		ldi r31,lo8(0)
 1950 0a5c EE0F      		lsl r30
 1951 0a5e FF1F      		rol r31
 1952 0a60 E050      		subi r30,lo8(-(CapTouch))
 1953 0a62 F040      		sbci r31,hi8(-(CapTouch))
 1954               	.LM222:
 1955 0a64 8385      		ldd r24,Z+11
 1956               	.LVL114:
 1957 0a66 9485      		ldd r25,Z+12
 1958               	/* epilogue start */
 1959 0a68 0895      		ret
 1960               	.LFE39:
 1962               	.global	CapTouch_Get_RawDifferentialADC
 1964               	CapTouch_Get_RawDifferentialADC:
 1965               	.LFB40:
 1966               	.LM223:
 1967               	.LVL115:
 1968               	/* prologue: function */
 1969               	/* frame size = 0 */
 1970               	.LM224:
 1971 0a6a E82F      		mov r30,r24
 1972 0a6c F0E0      		ldi r31,lo8(0)
 1973 0a6e EE0F      		lsl r30
 1974 0a70 FF1F      		rol r31
 1975               	.LVL116:
 1976 0a72 E050      		subi r30,lo8(-(CapTouch))
 1977 0a74 F040      		sbci r31,hi8(-(CapTouch))
 1978               	.LM225:
 1979 0a76 8785      		ldd r24,Z+15
 1980 0a78 9089      		ldd r25,Z+16
 1981               	/* epilogue start */
 1982 0a7a 0895      		ret
 1983               	.LFE40:
 1985               	.global	CapTouch_Get_Calibration_Value
 1987               	CapTouch_Get_Calibration_Value:
 1988               	.LFB41:
 1989               	.LM226:
 1990               	.LVL117:
 1991               	/* prologue: function */
 1992               	/* frame size = 0 */
 1993               	.LM227:
 1994 0a7c E82F      		mov r30,r24
 1995 0a7e F0E0      		ldi r31,lo8(0)
 1996 0a80 EE0F      		lsl r30
 1997 0a82 FF1F      		rol r31
 1998 0a84 E050      		subi r30,lo8(-(CapTouch))
 1999 0a86 F040      		sbci r31,hi8(-(CapTouch))
 2000               	.LM228:
 2001 0a88 8381      		ldd r24,Z+3
 2002               	.LVL118:
 2003 0a8a 9481      		ldd r25,Z+4
 2004               	/* epilogue start */
 2005 0a8c 0895      		ret
 2006               	.LFE41:
 2008               	.global	CapTouch_Get_Touch_Duration
 2010               	CapTouch_Get_Touch_Duration:
 2011               	.LFB42:
 2012               	.LM229:
 2013               	.LVL119:
 2014               	/* prologue: function */
 2015               	/* frame size = 0 */
 2016               	.LM230:
 2017 0a8e E82F      		mov r30,r24
 2018 0a90 F0E0      		ldi r31,lo8(0)
 2019 0a92 EE0F      		lsl r30
 2020 0a94 FF1F      		rol r31
 2021 0a96 EE0F      		lsl r30
 2022 0a98 FF1F      		rol r31
 2023 0a9a E050      		subi r30,lo8(-(CapTouch))
 2024 0a9c F040      		sbci r31,hi8(-(CapTouch))
 2025 0a9e DF01      		movw r26,r30
 2026 0aa0 5B96      		adiw r26,27
 2027 0aa2 638D      		ldd r22,Z+27
 2028 0aa4 1196      		adiw r26,1
 2029 0aa6 7C91      		ld r23,X
 2030 0aa8 1197      		sbiw r26,1
 2031               	.LM231:
 2032 0aaa 1296      		adiw r26,2
 2033 0aac 8C91      		ld r24,X
 2034 0aae 1297      		sbiw r26,2
 2035               	.LVL120:
 2036 0ab0 1396      		adiw r26,3
 2037 0ab2 9C91      		ld r25,X
 2038               	/* epilogue start */
 2039 0ab4 0895      		ret
 2040               	.LFE42:
 2042               	.global	CapTouch_Get_Touch_Response
 2044               	CapTouch_Get_Touch_Response:
 2045               	.LFB43:
 2046               	.LM232:
 2047               	.LVL121:
 2048               	/* prologue: function */
 2049               	/* frame size = 0 */
 2050               	.LM233:
 2051 0ab6 E0E0      		ldi r30,lo8(CapTouch)
 2052 0ab8 F0E0      		ldi r31,hi8(CapTouch)
 2053 0aba E80F      		add r30,r24
 2054 0abc F11D      		adc r31,__zero_reg__
 2055               	.LM234:
 2056 0abe 8181      		ldd r24,Z+1
 2057               	.LVL122:
 2058               	/* epilogue start */
 2059 0ac0 0895      		ret
 2060               	.LFE43:
 2062               	.global	CapTouch_Get_Reference_Timer_Use_Flag
 2064               	CapTouch_Get_Reference_Timer_Use_Flag:
 2065               	.LFB44:
 2066               	.LM235:
 2067               	/* prologue: function */
 2068               	/* frame size = 0 */
 2069               	.LM236:
 2070 0ac2 8091 0000 		lds r24,CapTouch+51
 2071 0ac6 8111      		cpse r24,__zero_reg__
 2072 0ac8 81E0      		ldi r24,lo8(1)
 2073               	.L124:
 2074               	.LM237:
 2075 0aca 0895      		ret
 2076               	.LFE44:
 2078               	.global	CapTouch_Get_ErrorCode
 2080               	CapTouch_Get_ErrorCode:
 2081               	.LFB45:
 2082               	.LM238:
 2083               	.LVL123:
 2084               	/* prologue: function */
 2085               	/* frame size = 0 */
 2086               	.LM239:
 2087 0acc E0E0      		ldi r30,lo8(CapTouch)
 2088 0ace F0E0      		ldi r31,hi8(CapTouch)
 2089 0ad0 E80F      		add r30,r24
 2090 0ad2 F11D      		adc r31,__zero_reg__
 2091               	.LM240:
 2092 0ad4 84A9      		ldd r24,Z+52
 2093               	.LVL124:
 2094               	/* epilogue start */
 2095 0ad6 0895      		ret
 2096               	.LFE45:
 2098               	.global	CapTouch_Get_Debug_Data
 2100               	CapTouch_Get_Debug_Data:
 2101               	.LFB46:
 2102               	.LM241:
 2103               	.LVL125:
 2104 0ad8 CF93      		push r28
 2105 0ada DF93      		push r29
 2106               	/* prologue: function */
 2107               	/* frame size = 0 */
 2108 0adc EB01      		movw r28,r22
 2109               	.LM242:
 2110 0ade 28E0      		ldi r18,lo8(8)
 2111 0ae0 30E0      		ldi r19,hi8(8)
 2112 0ae2 3983      		std Y+1,r19
 2113 0ae4 2883      		st Y,r18
 2114               	.LM243:
 2115 0ae6 A82F      		mov r26,r24
 2116 0ae8 B0E0      		ldi r27,lo8(0)
 2117 0aea BB83      		std Y+3,r27
 2118 0aec AA83      		std Y+2,r26
 2119               	.LM244:
 2120 0aee FD01      		movw r30,r26
 2121 0af0 EE0F      		lsl r30
 2122 0af2 FF1F      		rol r31
 2123 0af4 E050      		subi r30,lo8(-(CapTouch))
 2124 0af6 F040      		sbci r31,hi8(-(CapTouch))
 2125 0af8 8781      		ldd r24,Z+7
 2126 0afa 9085      		ldd r25,Z+8
 2127               	.LVL126:
 2128 0afc 9D83      		std Y+5,r25
 2129 0afe 8C83      		std Y+4,r24
 2130               	.LM245:
 2131 0b00 8385      		ldd r24,Z+11
 2132 0b02 9485      		ldd r25,Z+12
 2133 0b04 9F83      		std Y+7,r25
 2134 0b06 8E83      		std Y+6,r24
 2135               	.LM246:
 2136 0b08 8785      		ldd r24,Z+15
 2137 0b0a 9089      		ldd r25,Z+16
 2138 0b0c 9987      		std Y+9,r25
 2139 0b0e 8887      		std Y+8,r24
 2140               	.LM247:
 2141 0b10 8381      		ldd r24,Z+3
 2142 0b12 9481      		ldd r25,Z+4
 2143 0b14 9B87      		std Y+11,r25
 2144 0b16 8A87      		std Y+10,r24
 2145               	.LM248:
 2146 0b18 FD01      		movw r30,r26
 2147 0b1a EE0F      		lsl r30
 2148 0b1c FF1F      		rol r31
 2149 0b1e EE0F      		lsl r30
 2150 0b20 FF1F      		rol r31
 2151 0b22 E050      		subi r30,lo8(-(CapTouch))
 2152 0b24 F040      		sbci r31,hi8(-(CapTouch))
 2153 0b26 838D      		ldd r24,Z+27
 2154 0b28 948D      		ldd r25,Z+28
 2155 0b2a 9D87      		std Y+13,r25
 2156 0b2c 8C87      		std Y+12,r24
 2157               	.LM249:
 2158 0b2e A050      		subi r26,lo8(-(CapTouch))
 2159 0b30 B040      		sbci r27,hi8(-(CapTouch))
 2160 0b32 1196      		adiw r26,1
 2161 0b34 8C91      		ld r24,X
 2162 0b36 8E87      		std Y+14,r24
 2163 0b38 1F86      		std Y+15,__zero_reg__
 2164               	.LM250:
 2165 0b3a 20E0      		ldi r18,lo8(0)
 2166 0b3c 30E0      		ldi r19,hi8(0)
 2167 0b3e 8091 0000 		lds r24,CapTouch+51
 2168 0b42 8823      		tst r24
 2169 0b44 01F0      		breq .L129
 2170               	.LVL127:
 2171 0b46 21E0      		ldi r18,lo8(1)
 2172 0b48 30E0      		ldi r19,hi8(1)
 2173               	.L129:
 2174 0b4a 398B      		std Y+17,r19
 2175 0b4c 288B      		std Y+16,r18
 2176               	/* epilogue start */
 2177               	.LM251:
 2178 0b4e DF91      		pop r29
 2179 0b50 CF91      		pop r28
 2180               	.LVL128:
 2181 0b52 0895      		ret
 2182               	.LFE46:
 2184               	.global	CapTouch_Init
 2186               	CapTouch_Init:
 2187               	.LFB47:
 2188               	.LM252:
 2189               	/* prologue: function */
 2190               	/* frame size = 0 */
 2191               	.LM253:
 2192 0b54 0E94 0000 		call CapTouch_Struct_Init
 2193               	.LM254:
 2194 0b58 0E94 0000 		call CapTouch_IIR_LPF_Struct_Init
 2195               	.LBB92:
 2196               	.LBB93:
 2197               	.LM255:
 2198 0b5c 80E4      		ldi r24,lo8(64)
 2199 0b5e 8093 7C00 		sts 124,r24
 2200               	.LM256:
 2201 0b62 87E8      		ldi r24,lo8(-121)
 2202 0b64 8093 7A00 		sts 122,r24
 2203               	.LBE93:
 2204               	.LBE92:
 2205               	.LM257:
 2206 0b68 0E94 0000 		call CapTouch_Calibration
 2207               	/* epilogue start */
 2208               	.LM258:
 2209 0b6c 0895      		ret
 2210               	.LFE47:
 2212               	.global	CapTouch_Pins
 2213               		.data
 2216               	CapTouch_Pins:
 2217 0000 04        		.byte	4
 2218 0001 05        		.byte	5
 2219               		.comm CapTouch,54,1
 2220               		.comm IIR_LPF,54,1
 2573               	.Letext0:
DEFINED SYMBOLS
                            *ABS*:00000000 captouch.c
C:\Users\FARIDU~1\AppData\Local\Temp/ccfyCyO7.s:2      *ABS*:0000003f __SREG__
C:\Users\FARIDU~1\AppData\Local\Temp/ccfyCyO7.s:3      *ABS*:0000003e __SP_H__
C:\Users\FARIDU~1\AppData\Local\Temp/ccfyCyO7.s:4      *ABS*:0000003d __SP_L__
C:\Users\FARIDU~1\AppData\Local\Temp/ccfyCyO7.s:5      *ABS*:00000034 __CCP__
C:\Users\FARIDU~1\AppData\Local\Temp/ccfyCyO7.s:6      *ABS*:00000000 __tmp_reg__
C:\Users\FARIDU~1\AppData\Local\Temp/ccfyCyO7.s:7      *ABS*:00000001 __zero_reg__
C:\Users\FARIDU~1\AppData\Local\Temp/ccfyCyO7.s:18     .text:00000000 CapTouch_Struct_Init
                            *COM*:00000036 CapTouch
C:\Users\FARIDU~1\AppData\Local\Temp/ccfyCyO7.s:119    .text:000000ea CapTouch_IIR_LPF_Struct_Init
                            *COM*:00000036 IIR_LPF
C:\Users\FARIDU~1\AppData\Local\Temp/ccfyCyO7.s:166    .text:00000118 CapTouch_IIR_LPF_Set_Alpha
C:\Users\FARIDU~1\AppData\Local\Temp/ccfyCyO7.s:193    .text:00000132 CapTouch_IIR_LPF_Get_Alpha
C:\Users\FARIDU~1\AppData\Local\Temp/ccfyCyO7.s:221    .text:0000014c CapTouch_IIR_LPF_Get_Filtered_Value
C:\Users\FARIDU~1\AppData\Local\Temp/ccfyCyO7.s:340    .text:00000208 CapTouch_Set_Key_Pin_Input
C:\Users\FARIDU~1\AppData\Local\Temp/ccfyCyO7.s:365    .text:00000220 CapTouch_Set_Key_Pin_Analog
C:\Users\FARIDU~1\AppData\Local\Temp/ccfyCyO7.s:395    .text:0000023e CapTouch_Set_Key_Pin_Output
C:\Users\FARIDU~1\AppData\Local\Temp/ccfyCyO7.s:419    .text:00000254 CapTouch_Set_Key_Pin_Output_Low
C:\Users\FARIDU~1\AppData\Local\Temp/ccfyCyO7.s:444    .text:0000026c CapTouch_Set_Key_Pin_Output_High
C:\Users\FARIDU~1\AppData\Local\Temp/ccfyCyO7.s:468    .text:00000282 CapTouch_ADC_Register_Config
C:\Users\FARIDU~1\AppData\Local\Temp/ccfyCyO7.s:486    .text:00000290 CapTouch_ADC_Wakeup
C:\Users\FARIDU~1\AppData\Local\Temp/ccfyCyO7.s:504    .text:0000029c CapTouch_ADC_Sleep
C:\Users\FARIDU~1\AppData\Local\Temp/ccfyCyO7.s:522    .text:000002a8 CapTouch_ADC_Sample
C:\Users\FARIDU~1\AppData\Local\Temp/ccfyCyO7.s:564    .text:000002e4 CapTouch_Precharge_SH_Cap
C:\Users\FARIDU~1\AppData\Local\Temp/ccfyCyO7.s:2216   .data:00000000 CapTouch_Pins
C:\Users\FARIDU~1\AppData\Local\Temp/ccfyCyO7.s:612    .text:00000312 CapTouch_ADC_Sample1
C:\Users\FARIDU~1\AppData\Local\Temp/ccfyCyO7.s:685    .text:00000384 CapTouch_Precharge_Button
C:\Users\FARIDU~1\AppData\Local\Temp/ccfyCyO7.s:732    .text:000003b0 CapTouch_ADC_Sample2
C:\Users\FARIDU~1\AppData\Local\Temp/ccfyCyO7.s:810    .text:0000042c CapTouch_Read_Delta
C:\Users\FARIDU~1\AppData\Local\Temp/ccfyCyO7.s:882    .text:00000494 CapTouch_Calibration
C:\Users\FARIDU~1\AppData\Local\Temp/ccfyCyO7.s:1029   .text:0000059e CapTouch_Response
C:\Users\FARIDU~1\AppData\Local\Temp/ccfyCyO7.s:1076   .text:000005d6 CapTouch_Check_Trigger
C:\Users\FARIDU~1\AppData\Local\Temp/ccfyCyO7.s:1145   .text:00000624 CapTouch_Check_Touch_Duration
C:\Users\FARIDU~1\AppData\Local\Temp/ccfyCyO7.s:1321   .text:0000072e CapTouch_Scan_Sensors
C:\Users\FARIDU~1\AppData\Local\Temp/ccfyCyO7.s:1386   .text:0000077a CapTouch_Short_Pressed
C:\Users\FARIDU~1\AppData\Local\Temp/ccfyCyO7.s:1450   .text:000007da CapTouch_Long_Pressed
C:\Users\FARIDU~1\AppData\Local\Temp/ccfyCyO7.s:1500   .text:00000820 CapTouch_Constant_Pressed
C:\Users\FARIDU~1\AppData\Local\Temp/ccfyCyO7.s:1556   .text:0000086e CapTouch_Short_Pressed_Filtered
C:\Users\FARIDU~1\AppData\Local\Temp/ccfyCyO7.s:1701   .text:0000092e CapTouch_Long_Pressed_Filtered
C:\Users\FARIDU~1\AppData\Local\Temp/ccfyCyO7.s:1870   .text:00000a28 CapTouch_Set_Short_Press_Min_Time
C:\Users\FARIDU~1\AppData\Local\Temp/ccfyCyO7.s:1886   .text:00000a32 CapTouch_Set_Short_Press_Max_Time
C:\Users\FARIDU~1\AppData\Local\Temp/ccfyCyO7.s:1902   .text:00000a3c CapTouch_Set_Long_Press_Time
C:\Users\FARIDU~1\AppData\Local\Temp/ccfyCyO7.s:1918   .text:00000a46 CapTouch_Get_RawADC1
C:\Users\FARIDU~1\AppData\Local\Temp/ccfyCyO7.s:1941   .text:00000a58 CapTouch_Get_RawADC2
C:\Users\FARIDU~1\AppData\Local\Temp/ccfyCyO7.s:1964   .text:00000a6a CapTouch_Get_RawDifferentialADC
C:\Users\FARIDU~1\AppData\Local\Temp/ccfyCyO7.s:1987   .text:00000a7c CapTouch_Get_Calibration_Value
C:\Users\FARIDU~1\AppData\Local\Temp/ccfyCyO7.s:2010   .text:00000a8e CapTouch_Get_Touch_Duration
C:\Users\FARIDU~1\AppData\Local\Temp/ccfyCyO7.s:2044   .text:00000ab6 CapTouch_Get_Touch_Response
C:\Users\FARIDU~1\AppData\Local\Temp/ccfyCyO7.s:2064   .text:00000ac2 CapTouch_Get_Reference_Timer_Use_Flag
C:\Users\FARIDU~1\AppData\Local\Temp/ccfyCyO7.s:2080   .text:00000acc CapTouch_Get_ErrorCode
C:\Users\FARIDU~1\AppData\Local\Temp/ccfyCyO7.s:2100   .text:00000ad8 CapTouch_Get_Debug_Data
C:\Users\FARIDU~1\AppData\Local\Temp/ccfyCyO7.s:2186   .text:00000b54 CapTouch_Init

UNDEFINED SYMBOLS
__mulsi3
__divmodsi4
__do_copy_data
__do_clear_bss
