   1               		.file	"nrf24l01pv2.c"
   2               	__SREG__ = 0x3f
   3               	__SP_H__ = 0x3e
   4               	__SP_L__ = 0x3d
   5               	__CCP__  = 0x34
   6               	__tmp_reg__ = 0
   7               	__zero_reg__ = 1
  15               	.Ltext0:
  16               	.global	nRF24L01P_Struct_Init
  18               	nRF24L01P_Struct_Init:
  19               	.LFB6:
  20               	.LM1:
  21               	/* prologue: function */
  22               	/* frame size = 0 */
  23               	.LM2:
  24 0000 80E0      		ldi r24,lo8(nRF24L01P_type)
  25 0002 90E0      		ldi r25,hi8(nRF24L01P_type)
  26 0004 9093 0000 		sts (nRF24L01P)+1,r25
  27 0008 8093 0000 		sts nRF24L01P,r24
  28               	.LM3:
  29 000c 1092 0000 		sts nRF24L01P_type,__zero_reg__
  30               	.LM4:
  31 0010 1092 0000 		sts nRF24L01P_type+1,__zero_reg__
  32               	.LM5:
  33 0014 1092 0000 		sts nRF24L01P_type+2,__zero_reg__
  34               	.LM6:
  35 0018 1092 0000 		sts nRF24L01P_type+3,__zero_reg__
  36               	.LM7:
  37 001c 21E0      		ldi r18,lo8(1)
  38 001e 2093 0000 		sts nRF24L01P_type+4,r18
  39               	.LM8:
  40 0022 8AE0      		ldi r24,lo8(10)
  41 0024 90E0      		ldi r25,hi8(10)
  42 0026 9093 0000 		sts (nRF24L01P_type+5)+1,r25
  43 002a 8093 0000 		sts nRF24L01P_type+5,r24
  44               	.LM9:
  45 002e 1092 0000 		sts (nRF24L01P_type+7)+1,__zero_reg__
  46 0032 1092 0000 		sts nRF24L01P_type+7,__zero_reg__
  47               	.LM10:
  48 0036 1092 0000 		sts nRF24L01P_type+9,__zero_reg__
  49               	.LM11:
  50 003a 1092 0000 		sts (nRF24L01P_type+10)+1,__zero_reg__
  51 003e 1092 0000 		sts nRF24L01P_type+10,__zero_reg__
  52               	.LM12:
  53 0042 1092 0000 		sts (nRF24L01P_type+12)+1,__zero_reg__
  54 0046 1092 0000 		sts nRF24L01P_type+12,__zero_reg__
  55               	.LM13:
  56 004a 1092 0000 		sts nRF24L01P_type+14,__zero_reg__
  57               	.LM14:
  58 004e 2093 0000 		sts nRF24L01P_type+15,r18
  59               	.LM15:
  60 0052 1092 0000 		sts (nRF24L01P_type+16)+1,__zero_reg__
  61 0056 1092 0000 		sts nRF24L01P_type+16,__zero_reg__
  62               	.LM16:
  63 005a 1092 0000 		sts nRF24L01P_type+18,__zero_reg__
  64               	/* epilogue start */
  65               	.LM17:
  66 005e 0895      		ret
  67               	.LFE6:
  69               	.global	nRF24L01P_CSN_High
  71               	nRF24L01P_CSN_High:
  72               	.LFB7:
  73               	.LM18:
  74               	/* prologue: function */
  75               	/* frame size = 0 */
  76               	.LM19:
  77 0060 289A      		sbi 37-32,0
  78               	/* epilogue start */
  79               	.LM20:
  80 0062 0895      		ret
  81               	.LFE7:
  83               	.global	nRF24L01P_CSN_Low
  85               	nRF24L01P_CSN_Low:
  86               	.LFB8:
  87               	.LM21:
  88               	/* prologue: function */
  89               	/* frame size = 0 */
  90               	.LM22:
  91 0064 2898      		cbi 37-32,0
  92               	/* epilogue start */
  93               	.LM23:
  94 0066 0895      		ret
  95               	.LFE8:
  97               	.global	nRF24L01P_CE_High
  99               	nRF24L01P_CE_High:
 100               	.LFB9:
 101               	.LM24:
 102               	/* prologue: function */
 103               	/* frame size = 0 */
 104               	.LM25:
 105 0068 5F9A      		sbi 43-32,7
 106               	/* epilogue start */
 107               	.LM26:
 108 006a 0895      		ret
 109               	.LFE9:
 111               	.global	nRF24L01P_CE_Low
 113               	nRF24L01P_CE_Low:
 114               	.LFB10:
 115               	.LM27:
 116               	/* prologue: function */
 117               	/* frame size = 0 */
 118               	.LM28:
 119 006c 5F98      		cbi 43-32,7
 120               	/* epilogue start */
 121               	.LM29:
 122 006e 0895      		ret
 123               	.LFE10:
 125               	.global	nRF24L01P_Enable_GPIO
 127               	nRF24L01P_Enable_GPIO:
 128               	.LFB11:
 129               	.LM30:
 130               	/* prologue: function */
 131               	/* frame size = 0 */
 132               	.LM31:
 133 0070 84B1      		in r24,36-32
 134 0072 8C62      		ori r24,lo8(44)
 135 0074 84B9      		out 36-32,r24
 136               	.LM32:
 137 0076 2498      		cbi 36-32,4
 138               	.LM33:
 139 0078 209A      		sbi 36-32,0
 140               	.LM34:
 141 007a 579A      		sbi 42-32,7
 142               	.LBB87:
 143               	.LBB88:
 144               	.LM35:
 145 007c 289A      		sbi 37-32,0
 146               	.LBE88:
 147               	.LBE87:
 148               	.LBB89:
 149               	.LBB90:
 150               	.LM36:
 151 007e 5F98      		cbi 43-32,7
 152               	/* epilogue start */
 153               	.LBE90:
 154               	.LBE89:
 155               	.LM37:
 156 0080 0895      		ret
 157               	.LFE11:
 159               	.global	nRF24L01P_Disable_GPIO
 161               	nRF24L01P_Disable_GPIO:
 162               	.LFB12:
 163               	.LM38:
 164               	/* prologue: function */
 165               	/* frame size = 0 */
 166               	.LM39:
 167 0082 249A      		sbi 36-32,4
 168               	.LM40:
 169 0084 85B1      		in r24,37-32
 170 0086 837C      		andi r24,lo8(-61)
 171 0088 85B9      		out 37-32,r24
 172               	.LBB91:
 173               	.LBB92:
 174               	.LM41:
 175 008a 289A      		sbi 37-32,0
 176               	.LBE92:
 177               	.LBE91:
 178               	.LBB93:
 179               	.LBB94:
 180               	.LM42:
 181 008c 5F98      		cbi 43-32,7
 182               	/* epilogue start */
 183               	.LBE94:
 184               	.LBE93:
 185               	.LM43:
 186 008e 0895      		ret
 187               	.LFE12:
 189               	.global	nRF24L01P_Enable_SPI
 191               	nRF24L01P_Enable_SPI:
 192               	.LFB13:
 193               	.LM44:
 194               	/* prologue: function */
 195               	/* frame size = 0 */
 196               	.LM45:
 197 0090 80E5      		ldi r24,lo8(80)
 198 0092 8CBD      		out 76-32,r24
 199               	.LM46:
 200 0094 81E0      		ldi r24,lo8(1)
 201 0096 8DBD      		out 77-32,r24
 202               	/* epilogue start */
 203               	.LM47:
 204 0098 0895      		ret
 205               	.LFE13:
 207               	.global	nRF24L01P_Disable_SPI
 209               	nRF24L01P_Disable_SPI:
 210               	.LFB14:
 211               	.LM48:
 212               	/* prologue: function */
 213               	/* frame size = 0 */
 214               	.LM49:
 215 009a 1CBC      		out 76-32,__zero_reg__
 216               	.LM50:
 217 009c 1DBC      		out 77-32,__zero_reg__
 218               	/* epilogue start */
 219               	.LM51:
 220 009e 0895      		ret
 221               	.LFE14:
 223               	.global	nRF24L01P_Enable
 225               	nRF24L01P_Enable:
 226               	.LFB15:
 227               	.LM52:
 228               	/* prologue: function */
 229               	/* frame size = 0 */
 230               	.LM53:
 231 00a0 0E94 0000 		call nRF24L01P_Enable_GPIO
 232               	.LBB95:
 233               	.LBB96:
 234               	.LM54:
 235 00a4 80E5      		ldi r24,lo8(80)
 236 00a6 8CBD      		out 76-32,r24
 237               	.LM55:
 238 00a8 81E0      		ldi r24,lo8(1)
 239 00aa 8DBD      		out 77-32,r24
 240               	/* epilogue start */
 241               	.LBE96:
 242               	.LBE95:
 243               	.LM56:
 244 00ac 0895      		ret
 245               	.LFE15:
 247               	.global	nRF24L01P_Disable
 249               	nRF24L01P_Disable:
 250               	.LFB16:
 251               	.LM57:
 252               	/* prologue: function */
 253               	/* frame size = 0 */
 254               	.LBB97:
 255               	.LBB98:
 256               	.LM58:
 257 00ae 1CBC      		out 76-32,__zero_reg__
 258               	.LM59:
 259 00b0 1DBC      		out 77-32,__zero_reg__
 260               	.LBE98:
 261               	.LBE97:
 262               	.LM60:
 263 00b2 0E94 0000 		call nRF24L01P_Disable_GPIO
 264               	/* epilogue start */
 265               	.LM61:
 266 00b6 0895      		ret
 267               	.LFE16:
 269               	.global	nRF24L01P_Error_Clear
 271               	nRF24L01P_Error_Clear:
 272               	.LFB17:
 273               	.LM62:
 274               	/* prologue: function */
 275               	/* frame size = 0 */
 276               	.LM63:
 277 00b8 E091 0000 		lds r30,nRF24L01P
 278 00bc F091 0000 		lds r31,(nRF24L01P)+1
 279 00c0 118A      		std Z+17,__zero_reg__
 280 00c2 108A      		std Z+16,__zero_reg__
 281               	.LM64:
 282 00c4 128A      		std Z+18,__zero_reg__
 283               	/* epilogue start */
 284               	.LM65:
 285 00c6 0895      		ret
 286               	.LFE17:
 288               	.global	nRF24L01P_Get_Error
 290               	nRF24L01P_Get_Error:
 291               	.LFB18:
 292               	.LM66:
 293               	/* prologue: function */
 294               	/* frame size = 0 */
 295               	.LM67:
 296 00c8 E091 0000 		lds r30,nRF24L01P
 297 00cc F091 0000 		lds r31,(nRF24L01P)+1
 298               	.LM68:
 299 00d0 8289      		ldd r24,Z+18
 300               	/* epilogue start */
 301 00d2 0895      		ret
 302               	.LFE18:
 304               	.global	nRF24L01P_Error_Timeout
 306               	nRF24L01P_Error_Timeout:
 307               	.LFB19:
 308               	.LM69:
 309               	/* prologue: function */
 310               	/* frame size = 0 */
 311               	.LBB99:
 312               	.LBB100:
 313               	.LBB101:
 314               	.LBB102:
 315               	.LM70:
 316 00d4 84E0      		ldi r24,lo8(4)
 317               	.LVL0:
 318               	/* #APP */
 319               	 ;  83 "c:/winavr-20100110/lib/gcc/../../avr/include/util/delay_basic.h" 1
 320 00d6 8A95      		1: dec r24
 321 00d8 01F4      		brne 1b
 322               	 ;  0 "" 2
 323               	/* #NOAPP */
 324               	.LBE102:
 325               	.LBE101:
 326               	.LBE100:
 327               	.LBE99:
 328               	.LM71:
 329 00da E091 0000 		lds r30,nRF24L01P
 330 00de F091 0000 		lds r31,(nRF24L01P)+1
 331 00e2 8089      		ldd r24,Z+16
 332 00e4 9189      		ldd r25,Z+17
 333               	.LVL1:
 334 00e6 0196      		adiw r24,1
 335 00e8 918B      		std Z+17,r25
 336 00ea 808B      		std Z+16,r24
 337               	.LM72:
 338 00ec 895E      		subi r24,lo8(1001)
 339 00ee 9340      		sbci r25,hi8(1001)
 340 00f0 00F0      		brlo .L28
 341               	.LM73:
 342 00f2 118A      		std Z+17,__zero_reg__
 343 00f4 108A      		std Z+16,__zero_reg__
 344               	.LM74:
 345 00f6 80E1      		ldi r24,lo8(16)
 346 00f8 828B      		std Z+18,r24
 347               	.L28:
 348               	.LM75:
 349 00fa 8289      		ldd r24,Z+18
 350               	/* epilogue start */
 351 00fc 0895      		ret
 352               	.LFE19:
 354               	.global	nRF24L01P_SPI_Transfer
 356               	nRF24L01P_SPI_Transfer:
 357               	.LFB20:
 358               	.LM76:
 359               	.LVL2:
 360               	/* prologue: function */
 361               	/* frame size = 0 */
 362 00fe 982F      		mov r25,r24
 363               	.LM77:
 364 0100 E091 0000 		lds r30,nRF24L01P
 365 0104 F091 0000 		lds r31,(nRF24L01P)+1
 366 0108 8289      		ldd r24,Z+18
 367               	.LVL3:
 368 010a 8823      		tst r24
 369 010c 01F4      		brne .L31
 370               	.LM78:
 371 010e 9EBD      		out 78-32,r25
 372               	.LBB103:
 373               	.LBB104:
 374               	.LM79:
 375 0110 118A      		std Z+17,__zero_reg__
 376 0112 108A      		std Z+16,__zero_reg__
 377               	.LM80:
 378 0114 128A      		std Z+18,__zero_reg__
 379 0116 00C0      		rjmp .L32
 380               	.L34:
 381               	.LBE104:
 382               	.LBE103:
 383               	.LM81:
 384 0118 0E94 0000 		call nRF24L01P_Error_Timeout
 385               	.LVL4:
 386 011c 8823      		tst r24
 387 011e 01F4      		brne .L33
 388               	.LVL5:
 389               	.L32:
 390               	.LM82:
 391 0120 0DB4      		in __tmp_reg__,77-32
 392 0122 07FE      		sbrs __tmp_reg__,7
 393 0124 00C0      		rjmp .L34
 394               	.L33:
 395               	.LM83:
 396 0126 E091 0000 		lds r30,nRF24L01P
 397 012a F091 0000 		lds r31,(nRF24L01P)+1
 398 012e 8289      		ldd r24,Z+18
 399 0130 8823      		tst r24
 400 0132 01F4      		brne .L31
 401               	.LM84:
 402 0134 8EB5      		in r24,78-32
 403               	.LVL6:
 404 0136 0895      		ret
 405               	.LVL7:
 406               	.L31:
 407 0138 80E0      		ldi r24,lo8(0)
 408               	.LVL8:
 409               	.LVL9:
 410               	.LM85:
 411 013a 0895      		ret
 412               	.LFE20:
 414               	.global	nRF24L01P_Calcuate_CRC
 416               	nRF24L01P_Calcuate_CRC:
 417               	.LFB21:
 418               	.LM86:
 419               	.LVL10:
 420               	/* prologue: function */
 421               	/* frame size = 0 */
 422               	.LM87:
 423 013c 362F      		mov r19,r22
 424               	.LVL11:
 425 013e 20E0      		ldi r18,lo8(0)
 426               	.LVL12:
 427 0140 2827      		eor r18,r24
 428 0142 3927      		eor r19,r25
 429               	.LVL13:
 430 0144 40E0      		ldi r20,lo8(0)
 431               	.LVL14:
 432               	.LBB105:
 433               	.LM88:
 434 0146 61E2      		ldi r22,lo8(4129)
 435 0148 70E1      		ldi r23,hi8(4129)
 436               	.LVL15:
 437               	.L40:
 438 014a C901      		movw r24,r18
 439 014c 880F      		lsl r24
 440 014e 991F      		rol r25
 441               	.LVL16:
 442               	.LM89:
 443 0150 37FF      		sbrs r19,7
 444 0152 00C0      		rjmp .L38
 445               	.LVL17:
 446               	.LM90:
 447 0154 9C01      		movw r18,r24
 448 0156 2627      		eor r18,r22
 449 0158 3727      		eor r19,r23
 450 015a 00C0      		rjmp .L39
 451               	.LVL18:
 452               	.L38:
 453               	.LM91:
 454 015c 9C01      		movw r18,r24
 455               	.L39:
 456               	.LM92:
 457 015e 4F5F      		subi r20,lo8(-(1))
 458 0160 4830      		cpi r20,lo8(8)
 459 0162 01F4      		brne .L40
 460               	.LBE105:
 461               	.LM93:
 462 0164 C901      		movw r24,r18
 463               	.LVL19:
 464               	/* epilogue start */
 465 0166 0895      		ret
 466               	.LFE21:
 468               	.global	nRF24L01P_Calcuate_CRC_Block
 470               	nRF24L01P_Calcuate_CRC_Block:
 471               	.LFB22:
 472               	.LM94:
 473               	.LVL20:
 474 0168 0F93      		push r16
 475 016a 1F93      		push r17
 476 016c CF93      		push r28
 477 016e DF93      		push r29
 478               	/* prologue: function */
 479               	/* frame size = 0 */
 480 0170 062F      		mov r16,r22
 481               	.LM95:
 482 0172 EC01      		movw r28,r24
 483               	.LVL21:
 484 0174 20E0      		ldi r18,lo8(0)
 485 0176 30E0      		ldi r19,hi8(0)
 486               	.LVL22:
 487 0178 10E0      		ldi r17,lo8(0)
 488               	.LVL23:
 489 017a 00C0      		rjmp .L44
 490               	.LVL24:
 491               	.L45:
 492               	.LBB106:
 493               	.LM96:
 494 017c C901      		movw r24,r18
 495 017e 6991      		ld r22,Y+
 496 0180 0E94 0000 		call nRF24L01P_Calcuate_CRC
 497               	.LVL25:
 498 0184 9C01      		movw r18,r24
 499               	.LVL26:
 500               	.LM97:
 501 0186 1F5F      		subi r17,lo8(-(1))
 502               	.LVL27:
 503               	.L44:
 504 0188 1017      		cp r17,r16
 505 018a 00F0      		brlo .L45
 506               	.LBE106:
 507               	.LM98:
 508 018c C901      		movw r24,r18
 509               	.LVL28:
 510               	/* epilogue start */
 511 018e DF91      		pop r29
 512 0190 CF91      		pop r28
 513 0192 1F91      		pop r17
 514               	.LVL29:
 515 0194 0F91      		pop r16
 516               	.LVL30:
 517 0196 0895      		ret
 518               	.LFE22:
 520               	.global	nRF24L01P_ReadWrite_Register
 522               	nRF24L01P_ReadWrite_Register:
 523               	.LFB23:
 524               	.LM99:
 525               	.LVL31:
 526 0198 FF92      		push r15
 527 019a 0F93      		push r16
 528 019c 1F93      		push r17
 529 019e CF93      		push r28
 530 01a0 DF93      		push r29
 531               	/* prologue: function */
 532               	/* frame size = 0 */
 533 01a2 142F      		mov r17,r20
 534 01a4 052F      		mov r16,r21
 535               	.LVL32:
 536 01a6 F22E      		mov r15,r18
 537               	.LBB107:
 538               	.LBB108:
 539               	.LM100:
 540 01a8 2898      		cbi 37-32,0
 541               	.LBE108:
 542               	.LBE107:
 543               	.LM101:
 544 01aa 6623      		tst r22
 545 01ac 01F4      		brne .L48
 546               	.LVL33:
 547               	.LM102:
 548 01ae 8062      		ori r24,lo8(32)
 549               	.LVL34:
 550 01b0 0E94 0000 		call nRF24L01P_SPI_Transfer
 551               	.LVL35:
 552 01b4 812F      		mov r24,r17
 553 01b6 902F      		mov r25,r16
 554 01b8 9C01      		movw r18,r24
 555 01ba E901      		movw r28,r18
 556 01bc 10E0      		ldi r17,lo8(0)
 557               	.LVL36:
 558 01be 00C0      		rjmp .L49
 559               	.L50:
 560               	.LBB109:
 561               	.LM103:
 562 01c0 8991      		ld r24,Y+
 563 01c2 0E94 0000 		call nRF24L01P_SPI_Transfer
 564               	.LM104:
 565 01c6 1F5F      		subi r17,lo8(-(1))
 566               	.L49:
 567 01c8 1F15      		cp r17,r15
 568 01ca 00F0      		brlo .L50
 569 01cc 00C0      		rjmp .L51
 570               	.LVL37:
 571               	.L48:
 572               	.LBE109:
 573               	.LM105:
 574 01ce 0E94 0000 		call nRF24L01P_SPI_Transfer
 575               	.LVL38:
 576 01d2 812F      		mov r24,r17
 577 01d4 902F      		mov r25,r16
 578 01d6 9C01      		movw r18,r24
 579 01d8 E901      		movw r28,r18
 580 01da 10E0      		ldi r17,lo8(0)
 581               	.LVL39:
 582 01dc 00C0      		rjmp .L52
 583               	.L53:
 584               	.LBB110:
 585               	.LM106:
 586 01de 8FEF      		ldi r24,lo8(-1)
 587 01e0 0E94 0000 		call nRF24L01P_SPI_Transfer
 588 01e4 8993      		st Y+,r24
 589               	.LM107:
 590 01e6 1F5F      		subi r17,lo8(-(1))
 591               	.L52:
 592 01e8 1F15      		cp r17,r15
 593 01ea 00F0      		brlo .L53
 594               	.LVL40:
 595               	.L51:
 596               	.LBE110:
 597               	.LBB111:
 598               	.LBB112:
 599               	.LM108:
 600 01ec 289A      		sbi 37-32,0
 601               	/* epilogue start */
 602               	.LBE112:
 603               	.LBE111:
 604               	.LM109:
 605 01ee DF91      		pop r29
 606 01f0 CF91      		pop r28
 607 01f2 1F91      		pop r17
 608               	.LVL41:
 609 01f4 0F91      		pop r16
 610               	.LVL42:
 611 01f6 FF90      		pop r15
 612               	.LVL43:
 613 01f8 0895      		ret
 614               	.LFE23:
 616               	.global	nRF24L01P_Flush_Transmit_Buffer
 618               	nRF24L01P_Flush_Transmit_Buffer:
 619               	.LFB24:
 620               	.LM110:
 621               	/* prologue: function */
 622               	/* frame size = 0 */
 623               	.LM111:
 624 01fa 4091 0000 		lds r20,nRF24L01P
 625 01fe 5091 0000 		lds r21,(nRF24L01P)+1
 626 0202 4F5F      		subi r20,lo8(-(1))
 627 0204 5F4F      		sbci r21,hi8(-(1))
 628 0206 81EE      		ldi r24,lo8(-31)
 629 0208 60E0      		ldi r22,lo8(0)
 630 020a 20E0      		ldi r18,lo8(0)
 631 020c 0E94 0000 		call nRF24L01P_ReadWrite_Register
 632               	/* epilogue start */
 633               	.LM112:
 634 0210 0895      		ret
 635               	.LFE24:
 637               	.global	nRF24L01P_Write_Data_To_Transmit_Buffer
 639               	nRF24L01P_Write_Data_To_Transmit_Buffer:
 640               	.LFB25:
 641               	.LM113:
 642               	.LVL44:
 643               	/* prologue: function */
 644               	/* frame size = 0 */
 645 0212 AC01      		movw r20,r24
 646               	.LM114:
 647 0214 80EA      		ldi r24,lo8(-96)
 648               	.LVL45:
 649 0216 60E0      		ldi r22,lo8(0)
 650 0218 20E2      		ldi r18,lo8(32)
 651 021a 0E94 0000 		call nRF24L01P_ReadWrite_Register
 652               	.LVL46:
 653               	/* epilogue start */
 654               	.LM115:
 655 021e 0895      		ret
 656               	.LFE25:
 658               	.global	nRF24L01P_Transmit_Buffer_Empty
 660               	nRF24L01P_Transmit_Buffer_Empty:
 661               	.LFB26:
 662               	.LM116:
 663               	/* prologue: function */
 664               	/* frame size = 0 */
 665               	.LM117:
 666 0220 E091 0000 		lds r30,nRF24L01P
 667 0224 F091 0000 		lds r31,(nRF24L01P)+1
 668 0228 1182      		std Z+1,__zero_reg__
 669               	.LM118:
 670 022a 3196      		adiw r30,1
 671 022c 87E1      		ldi r24,lo8(23)
 672 022e 61E0      		ldi r22,lo8(1)
 673 0230 AF01      		movw r20,r30
 674 0232 21E0      		ldi r18,lo8(1)
 675 0234 0E94 0000 		call nRF24L01P_ReadWrite_Register
 676 0238 E091 0000 		lds r30,nRF24L01P
 677 023c F091 0000 		lds r31,(nRF24L01P)+1
 678 0240 8181      		ldd r24,Z+1
 679 0242 90E0      		ldi r25,lo8(0)
 680 0244 64E0      		ldi r22,4
 681 0246 9695      	1:	lsr r25
 682 0248 8795      		ror r24
 683 024a 6A95      		dec r22
 684 024c 01F4      		brne 1b
 685               	.LM119:
 686 024e 8170      		andi r24,lo8(1)
 687               	/* epilogue start */
 688 0250 0895      		ret
 689               	.LFE26:
 691               	.global	nRF24L01P_Wait_Till_Transmission_Completes
 693               	nRF24L01P_Wait_Till_Transmission_Completes:
 694               	.LFB27:
 695               	.LM120:
 696 0252 CF93      		push r28
 697 0254 DF93      		push r29
 698               	/* prologue: function */
 699               	/* frame size = 0 */
 700               	.LBB113:
 701               	.LBB114:
 702               	.LBB115:
 703               	.LBB116:
 704               	.LBB117:
 705               	.LBB118:
 706               	.LM121:
 707 0256 CCE2      		ldi r28,lo8(300)
 708 0258 D1E0      		ldi r29,hi8(300)
 709 025a 00C0      		rjmp .L62
 710               	.L63:
 711 025c CE01      		movw r24,r28
 712               	.LVL47:
 713               	/* #APP */
 714               	 ;  105 "c:/winavr-20100110/lib/gcc/../../avr/include/util/delay_basic.h" 1
 715 025e 0197      		1: sbiw r24,1
 716 0260 01F4      		brne 1b
 717               	 ;  0 "" 2
 718               	/* #NOAPP */
 719               	.L62:
 720               	.LBE118:
 721               	.LBE117:
 722               	.LBE116:
 723               	.LBE115:
 724               	.LBE114:
 725               	.LBE113:
 726               	.LM122:
 727 0262 0E94 0000 		call nRF24L01P_Transmit_Buffer_Empty
 728               	.LVL48:
 729 0266 8823      		tst r24
 730 0268 01F0      		breq .L63
 731               	/* epilogue start */
 732               	.LM123:
 733 026a DF91      		pop r29
 734 026c CF91      		pop r28
 735 026e 0895      		ret
 736               	.LFE27:
 738               	.global	nRF24L01P_Flush_Receive_Buffer
 740               	nRF24L01P_Flush_Receive_Buffer:
 741               	.LFB28:
 742               	.LM124:
 743               	/* prologue: function */
 744               	/* frame size = 0 */
 745               	.LM125:
 746 0270 4091 0000 		lds r20,nRF24L01P
 747 0274 5091 0000 		lds r21,(nRF24L01P)+1
 748 0278 4F5F      		subi r20,lo8(-(1))
 749 027a 5F4F      		sbci r21,hi8(-(1))
 750 027c 82EE      		ldi r24,lo8(-30)
 751 027e 60E0      		ldi r22,lo8(0)
 752 0280 20E0      		ldi r18,lo8(0)
 753 0282 0E94 0000 		call nRF24L01P_ReadWrite_Register
 754               	/* epilogue start */
 755               	.LM126:
 756 0286 0895      		ret
 757               	.LFE28:
 759               	.global	nRF24L01P_Read_Data_From_Receive_Buffer
 761               	nRF24L01P_Read_Data_From_Receive_Buffer:
 762               	.LFB29:
 763               	.LM127:
 764               	.LVL49:
 765               	/* prologue: function */
 766               	/* frame size = 0 */
 767 0288 AC01      		movw r20,r24
 768               	.LM128:
 769 028a 81E6      		ldi r24,lo8(97)
 770               	.LVL50:
 771 028c 61E0      		ldi r22,lo8(1)
 772 028e 20E2      		ldi r18,lo8(32)
 773 0290 0E94 0000 		call nRF24L01P_ReadWrite_Register
 774               	.LVL51:
 775               	/* epilogue start */
 776               	.LM129:
 777 0294 0895      		ret
 778               	.LFE29:
 780               	.global	nRF24L01P_Receive_Buffer_Not_Empty
 782               	nRF24L01P_Receive_Buffer_Not_Empty:
 783               	.LFB30:
 784               	.LM130:
 785               	/* prologue: function */
 786               	/* frame size = 0 */
 787               	.LM131:
 788 0296 E091 0000 		lds r30,nRF24L01P
 789 029a F091 0000 		lds r31,(nRF24L01P)+1
 790 029e 1182      		std Z+1,__zero_reg__
 791               	.LM132:
 792 02a0 3196      		adiw r30,1
 793 02a2 87E1      		ldi r24,lo8(23)
 794 02a4 61E0      		ldi r22,lo8(1)
 795 02a6 AF01      		movw r20,r30
 796 02a8 21E0      		ldi r18,lo8(1)
 797 02aa 0E94 0000 		call nRF24L01P_ReadWrite_Register
 798 02ae E091 0000 		lds r30,nRF24L01P
 799 02b2 F091 0000 		lds r31,(nRF24L01P)+1
 800 02b6 8181      		ldd r24,Z+1
 801 02b8 8095      		com r24
 802               	.LM133:
 803 02ba 8170      		andi r24,lo8(1)
 804               	/* epilogue start */
 805 02bc 0895      		ret
 806               	.LFE30:
 808               	.global	nRF24L01P_Get_Mode
 810               	nRF24L01P_Get_Mode:
 811               	.LFB31:
 812               	.LM134:
 813               	/* prologue: function */
 814               	/* frame size = 0 */
 815               	.LM135:
 816 02be 4091 0000 		lds r20,nRF24L01P
 817 02c2 5091 0000 		lds r21,(nRF24L01P)+1
 818 02c6 4F5F      		subi r20,lo8(-(1))
 819 02c8 5F4F      		sbci r21,hi8(-(1))
 820 02ca 80E0      		ldi r24,lo8(0)
 821 02cc 61E0      		ldi r22,lo8(1)
 822 02ce 21E0      		ldi r18,lo8(1)
 823 02d0 0E94 0000 		call nRF24L01P_ReadWrite_Register
 824               	.LM136:
 825 02d4 E091 0000 		lds r30,nRF24L01P
 826 02d8 F091 0000 		lds r31,(nRF24L01P)+1
 827 02dc 8181      		ldd r24,Z+1
 828 02de 81FF      		sbrs r24,1
 829 02e0 00C0      		rjmp .L72
 830               	.LM137:
 831 02e2 80FF      		sbrs r24,0
 832 02e4 00C0      		rjmp .L73
 833               	.LM138:
 834 02e6 81E0      		ldi r24,lo8(1)
 835 02e8 00C0      		rjmp .L76
 836               	.L73:
 837               	.LM139:
 838 02ea 82E0      		ldi r24,lo8(2)
 839               	.L76:
 840 02ec 8083      		st Z,r24
 841 02ee 0895      		ret
 842               	.L72:
 843               	.LM140:
 844 02f0 1082      		st Z,__zero_reg__
 845 02f2 80E0      		ldi r24,lo8(0)
 846               	.LM141:
 847 02f4 0895      		ret
 848               	.LFE31:
 850               	.global	nRF24L01P_Set_Mode_Sleep
 852               	nRF24L01P_Set_Mode_Sleep:
 853               	.LFB32:
 854               	.LM142:
 855               	/* prologue: function */
 856               	/* frame size = 0 */
 857               	.LM143:
 858 02f6 E091 0000 		lds r30,nRF24L01P
 859 02fa F091 0000 		lds r31,(nRF24L01P)+1
 860 02fe 1182      		std Z+1,__zero_reg__
 861               	.LM144:
 862 0300 3196      		adiw r30,1
 863 0302 80E0      		ldi r24,lo8(0)
 864 0304 60E0      		ldi r22,lo8(0)
 865 0306 AF01      		movw r20,r30
 866 0308 21E0      		ldi r18,lo8(1)
 867 030a 0E94 0000 		call nRF24L01P_ReadWrite_Register
 868               	.LM145:
 869 030e E091 0000 		lds r30,nRF24L01P
 870 0312 F091 0000 		lds r31,(nRF24L01P)+1
 871 0316 1082      		st Z,__zero_reg__
 872               	/* epilogue start */
 873               	.LM146:
 874 0318 0895      		ret
 875               	.LFE32:
 877               	.global	nRF24L01P_Set_Mode_Tx
 879               	nRF24L01P_Set_Mode_Tx:
 880               	.LFB33:
 881               	.LM147:
 882               	/* prologue: function */
 883               	/* frame size = 0 */
 884               	.LM148:
 885 031a E091 0000 		lds r30,nRF24L01P
 886 031e F091 0000 		lds r31,(nRF24L01P)+1
 887 0322 82E7      		ldi r24,lo8(114)
 888 0324 8183      		std Z+1,r24
 889               	.LBB119:
 890               	.LBB120:
 891               	.LM149:
 892 0326 5F98      		cbi 43-32,7
 893               	.LBE120:
 894               	.LBE119:
 895               	.LM150:
 896 0328 3196      		adiw r30,1
 897 032a 80E0      		ldi r24,lo8(0)
 898 032c 60E0      		ldi r22,lo8(0)
 899 032e AF01      		movw r20,r30
 900 0330 21E0      		ldi r18,lo8(1)
 901 0332 0E94 0000 		call nRF24L01P_ReadWrite_Register
 902               	.LM151:
 903 0336 0E94 0000 		call nRF24L01P_Flush_Transmit_Buffer
 904               	.LM152:
 905 033a E091 0000 		lds r30,nRF24L01P
 906 033e F091 0000 		lds r31,(nRF24L01P)+1
 907 0342 82E0      		ldi r24,lo8(2)
 908 0344 8083      		st Z,r24
 909               	/* epilogue start */
 910               	.LM153:
 911 0346 0895      		ret
 912               	.LFE33:
 914               	.global	nRF24L01P_Set_Mode_Rx
 916               	nRF24L01P_Set_Mode_Rx:
 917               	.LFB34:
 918               	.LM154:
 919               	/* prologue: function */
 920               	/* frame size = 0 */
 921               	.LM155:
 922 0348 E091 0000 		lds r30,nRF24L01P
 923 034c F091 0000 		lds r31,(nRF24L01P)+1
 924 0350 83E7      		ldi r24,lo8(115)
 925 0352 8183      		std Z+1,r24
 926               	.LBB121:
 927               	.LBB122:
 928               	.LM156:
 929 0354 5F9A      		sbi 43-32,7
 930               	.LBE122:
 931               	.LBE121:
 932               	.LM157:
 933 0356 3196      		adiw r30,1
 934 0358 80E0      		ldi r24,lo8(0)
 935 035a 60E0      		ldi r22,lo8(0)
 936 035c AF01      		movw r20,r30
 937 035e 21E0      		ldi r18,lo8(1)
 938 0360 0E94 0000 		call nRF24L01P_ReadWrite_Register
 939               	.LM158:
 940 0364 E091 0000 		lds r30,nRF24L01P
 941 0368 F091 0000 		lds r31,(nRF24L01P)+1
 942 036c 81E0      		ldi r24,lo8(1)
 943 036e 8083      		st Z,r24
 944               	/* epilogue start */
 945               	.LM159:
 946 0370 0895      		ret
 947               	.LFE34:
 949               	.global	nRF24L01P_ReadModifyWrite
 951               	nRF24L01P_ReadModifyWrite:
 952               	.LFB35:
 953               	.LM160:
 954               	.LVL52:
 955 0372 FF92      		push r15
 956 0374 0F93      		push r16
 957 0376 1F93      		push r17
 958               	/* prologue: function */
 959               	/* frame size = 0 */
 960 0378 F82E      		mov r15,r24
 961 037a 062F      		mov r16,r22
 962 037c 142F      		mov r17,r20
 963               	.LM161:
 964 037e 4091 0000 		lds r20,nRF24L01P
 965 0382 5091 0000 		lds r21,(nRF24L01P)+1
 966               	.LVL53:
 967 0386 4F5F      		subi r20,lo8(-(1))
 968 0388 5F4F      		sbci r21,hi8(-(1))
 969 038a 61E0      		ldi r22,lo8(1)
 970               	.LVL54:
 971 038c 21E0      		ldi r18,lo8(1)
 972 038e 0E94 0000 		call nRF24L01P_ReadWrite_Register
 973               	.LVL55:
 974 0392 E091 0000 		lds r30,nRF24L01P
 975 0396 F091 0000 		lds r31,(nRF24L01P)+1
 976               	.LM162:
 977 039a 1123      		tst r17
 978 039c 01F0      		breq .L84
 979               	.LM163:
 980 039e 81E0      		ldi r24,lo8(1)
 981 03a0 90E0      		ldi r25,hi8(1)
 982 03a2 00C0      		rjmp 2f
 983 03a4 880F      	1:	lsl r24
 984 03a6 991F      		rol r25
 985 03a8 0A95      	2:	dec r16
 986 03aa 02F4      		brpl 1b
 987 03ac 2181      		ldd r18,Z+1
 988 03ae 282B      		or r18,r24
 989 03b0 00C0      		rjmp .L87
 990               	.L84:
 991               	.LM164:
 992 03b2 81E0      		ldi r24,lo8(1)
 993 03b4 90E0      		ldi r25,hi8(1)
 994 03b6 00C0      		rjmp 2f
 995 03b8 880F      	1:	lsl r24
 996 03ba 991F      		rol r25
 997 03bc 0A95      	2:	dec r16
 998 03be 02F4      		brpl 1b
 999 03c0 8095      		com r24
 1000 03c2 2181      		ldd r18,Z+1
 1001 03c4 2823      		and r18,r24
 1002               	.L87:
 1003 03c6 2183      		std Z+1,r18
 1004               	.LM165:
 1005 03c8 4091 0000 		lds r20,nRF24L01P
 1006 03cc 5091 0000 		lds r21,(nRF24L01P)+1
 1007 03d0 4F5F      		subi r20,lo8(-(1))
 1008 03d2 5F4F      		sbci r21,hi8(-(1))
 1009 03d4 8F2D      		mov r24,r15
 1010 03d6 60E0      		ldi r22,lo8(0)
 1011 03d8 21E0      		ldi r18,lo8(1)
 1012 03da 0E94 0000 		call nRF24L01P_ReadWrite_Register
 1013               	/* epilogue start */
 1014               	.LM166:
 1015 03de 1F91      		pop r17
 1016               	.LVL56:
 1017 03e0 0F91      		pop r16
 1018               	.LVL57:
 1019 03e2 FF90      		pop r15
 1020               	.LVL58:
 1021 03e4 0895      		ret
 1022               	.LFE35:
 1024               	.global	nRF24L01P_Get_Channel
 1026               	nRF24L01P_Get_Channel:
 1027               	.LFB36:
 1028               	.LM167:
 1029               	/* prologue: function */
 1030               	/* frame size = 0 */
 1031               	.LM168:
 1032 03e6 4091 0000 		lds r20,nRF24L01P
 1033 03ea 5091 0000 		lds r21,(nRF24L01P)+1
 1034 03ee 4F5F      		subi r20,lo8(-(1))
 1035 03f0 5F4F      		sbci r21,hi8(-(1))
 1036 03f2 85E0      		ldi r24,lo8(5)
 1037 03f4 61E0      		ldi r22,lo8(1)
 1038 03f6 21E0      		ldi r18,lo8(1)
 1039 03f8 0E94 0000 		call nRF24L01P_ReadWrite_Register
 1040 03fc E091 0000 		lds r30,nRF24L01P
 1041 0400 F091 0000 		lds r31,(nRF24L01P)+1
 1042               	.LM169:
 1043 0404 8181      		ldd r24,Z+1
 1044               	/* epilogue start */
 1045 0406 0895      		ret
 1046               	.LFE36:
 1048               	.global	nRF24L01P_Set_Channel
 1050               	nRF24L01P_Set_Channel:
 1051               	.LFB37:
 1052               	.LM170:
 1053               	.LVL59:
 1054               	/* prologue: function */
 1055               	/* frame size = 0 */
 1056               	.LM171:
 1057 0408 E091 0000 		lds r30,nRF24L01P
 1058 040c F091 0000 		lds r31,(nRF24L01P)+1
 1059 0410 8E37      		cpi r24,lo8(126)
 1060 0412 00F0      		brlo .L91
 1061 0414 8DE7      		ldi r24,lo8(125)
 1062               	.LVL60:
 1063               	.L91:
 1064 0416 8183      		std Z+1,r24
 1065               	.LM172:
 1066 0418 3196      		adiw r30,1
 1067 041a 85E0      		ldi r24,lo8(5)
 1068               	.LVL61:
 1069 041c 60E0      		ldi r22,lo8(0)
 1070 041e AF01      		movw r20,r30
 1071 0420 21E0      		ldi r18,lo8(1)
 1072 0422 0E94 0000 		call nRF24L01P_ReadWrite_Register
 1073               	/* epilogue start */
 1074               	.LM173:
 1075 0426 0895      		ret
 1076               	.LFE37:
 1078               	.global	nRF24L01P_Get_Speed
 1080               	nRF24L01P_Get_Speed:
 1081               	.LFB38:
 1082               	.LM174:
 1083               	/* prologue: function */
 1084               	/* frame size = 0 */
 1085               	.LM175:
 1086 0428 4091 0000 		lds r20,nRF24L01P
 1087 042c 5091 0000 		lds r21,(nRF24L01P)+1
 1088 0430 4F5F      		subi r20,lo8(-(1))
 1089 0432 5F4F      		sbci r21,hi8(-(1))
 1090 0434 86E0      		ldi r24,lo8(6)
 1091 0436 61E0      		ldi r22,lo8(1)
 1092 0438 21E0      		ldi r18,lo8(1)
 1093 043a 0E94 0000 		call nRF24L01P_ReadWrite_Register
 1094               	.LM176:
 1095 043e E091 0000 		lds r30,nRF24L01P
 1096 0442 F091 0000 		lds r31,(nRF24L01P)+1
 1097 0446 9181      		ldd r25,Z+1
 1098 0448 9695      		lsr r25
 1099 044a 9695      		lsr r25
 1100 044c 9695      		lsr r25
 1101               	.LM177:
 1102 044e 892F      		mov r24,r25
 1103 0450 8695      		lsr r24
 1104 0452 8270      		andi r24,lo8(2)
 1105 0454 8183      		std Z+1,r24
 1106               	.LM178:
 1107 0456 9170      		andi r25,lo8(1)
 1108               	.LM179:
 1109 0458 892B      		or r24,r25
 1110 045a 8283      		std Z+2,r24
 1111               	.LM180:
 1112 045c 8230      		cpi r24,lo8(2)
 1113 045e 01F4      		brne .L94
 1114               	.LM181:
 1115 0460 1182      		std Z+1,__zero_reg__
 1116 0462 00C0      		rjmp .L95
 1117               	.L94:
 1118               	.LM182:
 1119 0464 8130      		cpi r24,lo8(1)
 1120 0466 01F0      		breq .L98
 1121               	.L96:
 1122               	.LM183:
 1123 0468 8823      		tst r24
 1124 046a 01F4      		brne .L95
 1125               	.LM184:
 1126 046c 82E0      		ldi r24,lo8(2)
 1127               	.L98:
 1128 046e 8183      		std Z+1,r24
 1129               	.L95:
 1130               	.LM185:
 1131 0470 8181      		ldd r24,Z+1
 1132               	/* epilogue start */
 1133 0472 0895      		ret
 1134               	.LFE38:
 1136               	.global	nRF24L01P_Set_Speed
 1138               	nRF24L01P_Set_Speed:
 1139               	.LFB39:
 1140               	.LM186:
 1141               	.LVL62:
 1142               	/* prologue: function */
 1143               	/* frame size = 0 */
 1144               	.LM187:
 1145 0474 8823      		tst r24
 1146 0476 01F4      		brne .L100
 1147               	.LM188:
 1148 0478 86E0      		ldi r24,lo8(6)
 1149               	.LVL63:
 1150 047a 65E0      		ldi r22,lo8(5)
 1151 047c 41E0      		ldi r20,lo8(1)
 1152 047e 00C0      		rjmp .L106
 1153               	.LVL64:
 1154               	.L100:
 1155               	.LM189:
 1156 0480 8130      		cpi r24,lo8(1)
 1157 0482 01F4      		brne .L102
 1158               	.LM190:
 1159 0484 86E0      		ldi r24,lo8(6)
 1160               	.LVL65:
 1161 0486 65E0      		ldi r22,lo8(5)
 1162 0488 40E0      		ldi r20,lo8(0)
 1163               	.L106:
 1164 048a 0E94 0000 		call nRF24L01P_ReadModifyWrite
 1165               	.LM191:
 1166 048e 86E0      		ldi r24,lo8(6)
 1167 0490 63E0      		ldi r22,lo8(3)
 1168 0492 40E0      		ldi r20,lo8(0)
 1169 0494 00C0      		rjmp .L105
 1170               	.LVL66:
 1171               	.L102:
 1172               	.LM192:
 1173 0496 86E0      		ldi r24,lo8(6)
 1174               	.LVL67:
 1175 0498 65E0      		ldi r22,lo8(5)
 1176 049a 40E0      		ldi r20,lo8(0)
 1177 049c 0E94 0000 		call nRF24L01P_ReadModifyWrite
 1178               	.LM193:
 1179 04a0 86E0      		ldi r24,lo8(6)
 1180 04a2 63E0      		ldi r22,lo8(3)
 1181 04a4 41E0      		ldi r20,lo8(1)
 1182               	.L105:
 1183 04a6 0E94 0000 		call nRF24L01P_ReadModifyWrite
 1184 04aa 0895      		ret
 1185               	.LFE39:
 1187               	.global	nRF24L01P_Get_Tx_Power
 1189               	nRF24L01P_Get_Tx_Power:
 1190               	.LFB40:
 1191               	.LM194:
 1192               	/* prologue: function */
 1193               	/* frame size = 0 */
 1194               	.LM195:
 1195 04ac 4091 0000 		lds r20,nRF24L01P
 1196 04b0 5091 0000 		lds r21,(nRF24L01P)+1
 1197 04b4 4F5F      		subi r20,lo8(-(1))
 1198 04b6 5F4F      		sbci r21,hi8(-(1))
 1199 04b8 86E0      		ldi r24,lo8(6)
 1200 04ba 61E0      		ldi r22,lo8(1)
 1201 04bc 21E0      		ldi r18,lo8(1)
 1202 04be 0E94 0000 		call nRF24L01P_ReadWrite_Register
 1203               	.LM196:
 1204 04c2 E091 0000 		lds r30,nRF24L01P
 1205 04c6 F091 0000 		lds r31,(nRF24L01P)+1
 1206               	.LM197:
 1207 04ca 8181      		ldd r24,Z+1
 1208 04cc 8695      		lsr r24
 1209 04ce 8370      		andi r24,lo8(3)
 1210 04d0 8183      		std Z+1,r24
 1211               	/* epilogue start */
 1212               	.LM198:
 1213 04d2 0895      		ret
 1214               	.LFE40:
 1216               	.global	nRF24L01P_Set_Tx_Power
 1218               	nRF24L01P_Set_Tx_Power:
 1219               	.LFB41:
 1220               	.LM199:
 1221               	.LVL68:
 1222               	/* prologue: function */
 1223               	/* frame size = 0 */
 1224               	.LM200:
 1225 04d4 8823      		tst r24
 1226 04d6 01F4      		brne .L110
 1227               	.LM201:
 1228 04d8 86E0      		ldi r24,lo8(6)
 1229               	.LVL69:
 1230 04da 62E0      		ldi r22,lo8(2)
 1231 04dc 40E0      		ldi r20,lo8(0)
 1232 04de 00C0      		rjmp .L117
 1233               	.LVL70:
 1234               	.L110:
 1235               	.LM202:
 1236 04e0 8130      		cpi r24,lo8(1)
 1237 04e2 01F4      		brne .L112
 1238               	.LM203:
 1239 04e4 86E0      		ldi r24,lo8(6)
 1240               	.LVL71:
 1241 04e6 62E0      		ldi r22,lo8(2)
 1242 04e8 40E0      		ldi r20,lo8(0)
 1243 04ea 00C0      		rjmp .L118
 1244               	.LVL72:
 1245               	.L112:
 1246               	.LM204:
 1247 04ec 8230      		cpi r24,lo8(2)
 1248 04ee 01F4      		brne .L113
 1249               	.LM205:
 1250 04f0 86E0      		ldi r24,lo8(6)
 1251               	.LVL73:
 1252 04f2 62E0      		ldi r22,lo8(2)
 1253 04f4 41E0      		ldi r20,lo8(1)
 1254               	.L117:
 1255 04f6 0E94 0000 		call nRF24L01P_ReadModifyWrite
 1256               	.LM206:
 1257 04fa 86E0      		ldi r24,lo8(6)
 1258 04fc 61E0      		ldi r22,lo8(1)
 1259 04fe 40E0      		ldi r20,lo8(0)
 1260 0500 00C0      		rjmp .L116
 1261               	.LVL74:
 1262               	.L113:
 1263               	.LM207:
 1264 0502 86E0      		ldi r24,lo8(6)
 1265               	.LVL75:
 1266 0504 62E0      		ldi r22,lo8(2)
 1267 0506 41E0      		ldi r20,lo8(1)
 1268               	.L118:
 1269 0508 0E94 0000 		call nRF24L01P_ReadModifyWrite
 1270               	.LM208:
 1271 050c 86E0      		ldi r24,lo8(6)
 1272 050e 61E0      		ldi r22,lo8(1)
 1273 0510 41E0      		ldi r20,lo8(1)
 1274               	.L116:
 1275 0512 0E94 0000 		call nRF24L01P_ReadModifyWrite
 1276 0516 0895      		ret
 1277               	.LFE41:
 1279               	.global	nRF24L01P_Set_Own_Address
 1281               	nRF24L01P_Set_Own_Address:
 1282               	.LFB42:
 1283               	.LM209:
 1284               	.LVL76:
 1285               	/* prologue: function */
 1286               	/* frame size = 0 */
 1287               	.LM210:
 1288 0518 E091 0000 		lds r30,nRF24L01P
 1289 051c F091 0000 		lds r31,(nRF24L01P)+1
 1290 0520 8383      		std Z+3,r24
 1291               	/* epilogue start */
 1292               	.LM211:
 1293 0522 0895      		ret
 1294               	.LFE42:
 1296               	.global	nRF24L01P_Set_Destination_Address
 1298               	nRF24L01P_Set_Destination_Address:
 1299               	.LFB43:
 1300               	.LM212:
 1301               	.LVL77:
 1302               	/* prologue: function */
 1303               	/* frame size = 0 */
 1304               	.LM213:
 1305 0524 E091 0000 		lds r30,nRF24L01P
 1306 0528 F091 0000 		lds r31,(nRF24L01P)+1
 1307 052c 8483      		std Z+4,r24
 1308               	/* epilogue start */
 1309               	.LM214:
 1310 052e 0895      		ret
 1311               	.LFE43:
 1313               	.global	nRF24L01P_Set_Receive_Timeout
 1315               	nRF24L01P_Set_Receive_Timeout:
 1316               	.LFB44:
 1317               	.LM215:
 1318               	.LVL78:
 1319               	/* prologue: function */
 1320               	/* frame size = 0 */
 1321               	.LM216:
 1322 0530 E091 0000 		lds r30,nRF24L01P
 1323 0534 F091 0000 		lds r31,(nRF24L01P)+1
 1324 0538 9683      		std Z+6,r25
 1325 053a 8583      		std Z+5,r24
 1326               	/* epilogue start */
 1327               	.LM217:
 1328 053c 0895      		ret
 1329               	.LFE44:
 1331               	.global	nRF24L01P_Set_MaxRetransmission
 1333               	nRF24L01P_Set_MaxRetransmission:
 1334               	.LFB45:
 1335               	.LM218:
 1336               	.LVL79:
 1337               	/* prologue: function */
 1338               	/* frame size = 0 */
 1339               	.LM219:
 1340 053e E091 0000 		lds r30,nRF24L01P
 1341 0542 F091 0000 		lds r31,(nRF24L01P)+1
 1342 0546 9387      		std Z+11,r25
 1343 0548 8287      		std Z+10,r24
 1344               	/* epilogue start */
 1345               	.LM220:
 1346 054a 0895      		ret
 1347               	.LFE45:
 1349               	.global	nRF24L01P_Deep_Sleep
 1351               	nRF24L01P_Deep_Sleep:
 1352               	.LFB46:
 1353               	.LM221:
 1354               	/* prologue: function */
 1355               	/* frame size = 0 */
 1356               	.LM222:
 1357 054c E091 0000 		lds r30,nRF24L01P
 1358 0550 F091 0000 		lds r31,(nRF24L01P)+1
 1359 0554 8081      		ld r24,Z
 1360 0556 8823      		tst r24
 1361 0558 01F0      		breq .L129
 1362               	.LM223:
 1363 055a 0E94 0000 		call nRF24L01P_Set_Mode_Sleep
 1364               	.LM224:
 1365 055e 0E94 0000 		call nRF24L01P_Disable
 1366               	.L129:
 1367 0562 0895      		ret
 1368               	.LFE46:
 1370               	.global	nRF24L01P_WakeUp
 1372               	nRF24L01P_WakeUp:
 1373               	.LFB47:
 1374               	.LM225:
 1375               	/* prologue: function */
 1376               	/* frame size = 0 */
 1377               	.LM226:
 1378 0564 E091 0000 		lds r30,nRF24L01P
 1379 0568 F091 0000 		lds r31,(nRF24L01P)+1
 1380 056c 8081      		ld r24,Z
 1381 056e 8823      		tst r24
 1382 0570 01F4      		brne .L132
 1383               	.LM227:
 1384 0572 0E94 0000 		call nRF24L01P_Enable
 1385               	.LM228:
 1386 0576 0E94 0000 		call nRF24L01P_Set_Mode_Rx
 1387               	.L132:
 1388 057a 0895      		ret
 1389               	.LFE47:
 1391               		.data
 1392               	.LC0:
 1393 0000 4143 4B30 		.string	"ACK00"
 1393      3000 
 1394               	.LC1:
 1395 0006 5049 5045 		.string	"PIPE1"
 1395      3100 
 1396               	.LC2:
 1397 000c 5049 5045 		.string	"PIPE2"
 1397      3200 
 1398               	.LC3:
 1399 0012 5049 5045 		.string	"PIPE3"
 1399      3300 
 1400               	.LC4:
 1401 0018 5049 5045 		.string	"PIPE4"
 1401      3400 
 1402               	.LC5:
 1403 001e 5049 5045 		.string	"PIPE5"
 1403      3500 
 1404               		.text
 1405               	.global	nRF24L01P_Init
 1407               	nRF24L01P_Init:
 1408               	.LFB48:
 1409               	.LM229:
 1410 057c 0F93      		push r16
 1411 057e 1F93      		push r17
 1412               	/* prologue: function */
 1413               	/* frame size = 0 */
 1414               	.LM230:
 1415 0580 0E94 0000 		call nRF24L01P_Struct_Init
 1416               	.LM231:
 1417 0584 0E94 0000 		call nRF24L01P_Enable
 1418               	.LM232:
 1419 0588 E091 0000 		lds r30,nRF24L01P
 1420 058c F091 0000 		lds r31,(nRF24L01P)+1
 1421 0590 1182      		std Z+1,__zero_reg__
 1422 0592 3196      		adiw r30,1
 1423 0594 80E0      		ldi r24,lo8(0)
 1424 0596 60E0      		ldi r22,lo8(0)
 1425 0598 AF01      		movw r20,r30
 1426 059a 21E0      		ldi r18,lo8(1)
 1427 059c 0E94 0000 		call nRF24L01P_ReadWrite_Register
 1428               	.LM233:
 1429 05a0 E091 0000 		lds r30,nRF24L01P
 1430 05a4 F091 0000 		lds r31,(nRF24L01P)+1
 1431 05a8 1182      		std Z+1,__zero_reg__
 1432 05aa 3196      		adiw r30,1
 1433 05ac 81E0      		ldi r24,lo8(1)
 1434 05ae 60E0      		ldi r22,lo8(0)
 1435 05b0 AF01      		movw r20,r30
 1436 05b2 21E0      		ldi r18,lo8(1)
 1437 05b4 0E94 0000 		call nRF24L01P_ReadWrite_Register
 1438               	.LM234:
 1439 05b8 E091 0000 		lds r30,nRF24L01P
 1440 05bc F091 0000 		lds r31,(nRF24L01P)+1
 1441 05c0 83E0      		ldi r24,lo8(3)
 1442 05c2 8183      		std Z+1,r24
 1443 05c4 3196      		adiw r30,1
 1444 05c6 82E0      		ldi r24,lo8(2)
 1445 05c8 60E0      		ldi r22,lo8(0)
 1446 05ca AF01      		movw r20,r30
 1447 05cc 21E0      		ldi r18,lo8(1)
 1448 05ce 0E94 0000 		call nRF24L01P_ReadWrite_Register
 1449               	.LM235:
 1450 05d2 E091 0000 		lds r30,nRF24L01P
 1451 05d6 F091 0000 		lds r31,(nRF24L01P)+1
 1452 05da 81E0      		ldi r24,lo8(1)
 1453 05dc 8183      		std Z+1,r24
 1454 05de 3196      		adiw r30,1
 1455 05e0 83E0      		ldi r24,lo8(3)
 1456 05e2 60E0      		ldi r22,lo8(0)
 1457 05e4 AF01      		movw r20,r30
 1458 05e6 21E0      		ldi r18,lo8(1)
 1459 05e8 0E94 0000 		call nRF24L01P_ReadWrite_Register
 1460               	.LM236:
 1461 05ec E091 0000 		lds r30,nRF24L01P
 1462 05f0 F091 0000 		lds r31,(nRF24L01P)+1
 1463 05f4 1182      		std Z+1,__zero_reg__
 1464 05f6 3196      		adiw r30,1
 1465 05f8 84E0      		ldi r24,lo8(4)
 1466 05fa 60E0      		ldi r22,lo8(0)
 1467 05fc AF01      		movw r20,r30
 1468 05fe 21E0      		ldi r18,lo8(1)
 1469 0600 0E94 0000 		call nRF24L01P_ReadWrite_Register
 1470               	.LM237:
 1471 0604 E091 0000 		lds r30,nRF24L01P
 1472 0608 F091 0000 		lds r31,(nRF24L01P)+1
 1473 060c 82E0      		ldi r24,lo8(2)
 1474 060e 8183      		std Z+1,r24
 1475 0610 3196      		adiw r30,1
 1476 0612 85E0      		ldi r24,lo8(5)
 1477 0614 60E0      		ldi r22,lo8(0)
 1478 0616 AF01      		movw r20,r30
 1479 0618 21E0      		ldi r18,lo8(1)
 1480 061a 0E94 0000 		call nRF24L01P_ReadWrite_Register
 1481               	.LM238:
 1482 061e E091 0000 		lds r30,nRF24L01P
 1483 0622 F091 0000 		lds r31,(nRF24L01P)+1
 1484 0626 86E2      		ldi r24,lo8(38)
 1485 0628 8183      		std Z+1,r24
 1486 062a 3196      		adiw r30,1
 1487 062c 86E0      		ldi r24,lo8(6)
 1488 062e 60E0      		ldi r22,lo8(0)
 1489 0630 AF01      		movw r20,r30
 1490 0632 21E0      		ldi r18,lo8(1)
 1491 0634 0E94 0000 		call nRF24L01P_ReadWrite_Register
 1492               	.LM239:
 1493 0638 E091 0000 		lds r30,nRF24L01P
 1494 063c F091 0000 		lds r31,(nRF24L01P)+1
 1495 0640 80E7      		ldi r24,lo8(112)
 1496 0642 8183      		std Z+1,r24
 1497 0644 3196      		adiw r30,1
 1498 0646 87E0      		ldi r24,lo8(7)
 1499 0648 60E0      		ldi r22,lo8(0)
 1500 064a AF01      		movw r20,r30
 1501 064c 21E0      		ldi r18,lo8(1)
 1502 064e 0E94 0000 		call nRF24L01P_ReadWrite_Register
 1503               	.LM240:
 1504 0652 E091 0000 		lds r30,nRF24L01P
 1505 0656 F091 0000 		lds r31,(nRF24L01P)+1
 1506 065a 10E2      		ldi r17,lo8(32)
 1507 065c 1183      		std Z+1,r17
 1508               	.LM241:
 1509 065e 3196      		adiw r30,1
 1510 0660 81E1      		ldi r24,lo8(17)
 1511 0662 60E0      		ldi r22,lo8(0)
 1512 0664 AF01      		movw r20,r30
 1513 0666 21E0      		ldi r18,lo8(1)
 1514 0668 0E94 0000 		call nRF24L01P_ReadWrite_Register
 1515               	.LM242:
 1516 066c E091 0000 		lds r30,nRF24L01P
 1517 0670 F091 0000 		lds r31,(nRF24L01P)+1
 1518 0674 1183      		std Z+1,r17
 1519               	.LM243:
 1520 0676 3196      		adiw r30,1
 1521 0678 82E1      		ldi r24,lo8(18)
 1522 067a 60E0      		ldi r22,lo8(0)
 1523 067c AF01      		movw r20,r30
 1524 067e 21E0      		ldi r18,lo8(1)
 1525 0680 0E94 0000 		call nRF24L01P_ReadWrite_Register
 1526               	.LM244:
 1527 0684 E091 0000 		lds r30,nRF24L01P
 1528 0688 F091 0000 		lds r31,(nRF24L01P)+1
 1529 068c 1182      		std Z+1,__zero_reg__
 1530 068e 3196      		adiw r30,1
 1531 0690 8CE1      		ldi r24,lo8(28)
 1532 0692 60E0      		ldi r22,lo8(0)
 1533 0694 AF01      		movw r20,r30
 1534 0696 21E0      		ldi r18,lo8(1)
 1535 0698 0E94 0000 		call nRF24L01P_ReadWrite_Register
 1536               	.LM245:
 1537 069c E091 0000 		lds r30,nRF24L01P
 1538 06a0 F091 0000 		lds r31,(nRF24L01P)+1
 1539 06a4 1182      		std Z+1,__zero_reg__
 1540 06a6 3196      		adiw r30,1
 1541 06a8 8DE1      		ldi r24,lo8(29)
 1542 06aa 60E0      		ldi r22,lo8(0)
 1543 06ac AF01      		movw r20,r30
 1544 06ae 21E0      		ldi r18,lo8(1)
 1545 06b0 0E94 0000 		call nRF24L01P_ReadWrite_Register
 1546               	.LM246:
 1547 06b4 00E0      		ldi r16,lo8(.LC0)
 1548 06b6 10E0      		ldi r17,hi8(.LC0)
 1549 06b8 80E1      		ldi r24,lo8(16)
 1550 06ba 60E0      		ldi r22,lo8(0)
 1551 06bc A801      		movw r20,r16
 1552 06be 25E0      		ldi r18,lo8(5)
 1553 06c0 0E94 0000 		call nRF24L01P_ReadWrite_Register
 1554               	.LM247:
 1555 06c4 8AE0      		ldi r24,lo8(10)
 1556 06c6 60E0      		ldi r22,lo8(0)
 1557 06c8 A801      		movw r20,r16
 1558 06ca 25E0      		ldi r18,lo8(5)
 1559 06cc 0E94 0000 		call nRF24L01P_ReadWrite_Register
 1560               	.LM248:
 1561 06d0 8BE0      		ldi r24,lo8(11)
 1562 06d2 60E0      		ldi r22,lo8(0)
 1563 06d4 40E0      		ldi r20,lo8(.LC1)
 1564 06d6 50E0      		ldi r21,hi8(.LC1)
 1565 06d8 25E0      		ldi r18,lo8(5)
 1566 06da 0E94 0000 		call nRF24L01P_ReadWrite_Register
 1567               	.LM249:
 1568 06de 8CE0      		ldi r24,lo8(12)
 1569 06e0 60E0      		ldi r22,lo8(0)
 1570 06e2 40E0      		ldi r20,lo8(.LC2)
 1571 06e4 50E0      		ldi r21,hi8(.LC2)
 1572 06e6 25E0      		ldi r18,lo8(5)
 1573 06e8 0E94 0000 		call nRF24L01P_ReadWrite_Register
 1574               	.LM250:
 1575 06ec 8DE0      		ldi r24,lo8(13)
 1576 06ee 60E0      		ldi r22,lo8(0)
 1577 06f0 40E0      		ldi r20,lo8(.LC3)
 1578 06f2 50E0      		ldi r21,hi8(.LC3)
 1579 06f4 25E0      		ldi r18,lo8(5)
 1580 06f6 0E94 0000 		call nRF24L01P_ReadWrite_Register
 1581               	.LM251:
 1582 06fa 8EE0      		ldi r24,lo8(14)
 1583 06fc 60E0      		ldi r22,lo8(0)
 1584 06fe 40E0      		ldi r20,lo8(.LC4)
 1585 0700 50E0      		ldi r21,hi8(.LC4)
 1586 0702 25E0      		ldi r18,lo8(5)
 1587 0704 0E94 0000 		call nRF24L01P_ReadWrite_Register
 1588               	.LM252:
 1589 0708 8FE0      		ldi r24,lo8(15)
 1590 070a 60E0      		ldi r22,lo8(0)
 1591 070c 40E0      		ldi r20,lo8(.LC5)
 1592 070e 50E0      		ldi r21,hi8(.LC5)
 1593 0710 25E0      		ldi r18,lo8(5)
 1594 0712 0E94 0000 		call nRF24L01P_ReadWrite_Register
 1595               	.LBB123:
 1596               	.LBB124:
 1597               	.LM253:
 1598 0716 E091 0000 		lds r30,nRF24L01P
 1599 071a F091 0000 		lds r31,(nRF24L01P)+1
 1600 071e 80E2      		ldi r24,lo8(32)
 1601 0720 90E0      		ldi r25,hi8(32)
 1602 0722 9683      		std Z+6,r25
 1603 0724 8583      		std Z+5,r24
 1604               	.LBE124:
 1605               	.LBE123:
 1606               	.LM254:
 1607 0726 0E94 0000 		call nRF24L01P_Set_Mode_Sleep
 1608               	/* epilogue start */
 1609               	.LM255:
 1610 072a 1F91      		pop r17
 1611 072c 0F91      		pop r16
 1612 072e 0895      		ret
 1613               	.LFE48:
 1615               	.global	nRF24L01P_Transmit_Basic
 1617               	nRF24L01P_Transmit_Basic:
 1618               	.LFB49:
 1619               	.LM256:
 1620               	.LVL80:
 1621 0730 FF92      		push r15
 1622 0732 0F93      		push r16
 1623 0734 1F93      		push r17
 1624               	/* prologue: function */
 1625               	/* frame size = 0 */
 1626 0736 8C01      		movw r16,r24
 1627 0738 F62E      		mov r15,r22
 1628               	.LM257:
 1629 073a 0E94 0000 		call nRF24L01P_Set_Mode_Tx
 1630               	.LVL81:
 1631               	.LM258:
 1632 073e E091 0000 		lds r30,nRF24L01P
 1633 0742 F091 0000 		lds r31,(nRF24L01P)+1
 1634 0746 8381      		ldd r24,Z+3
 1635 0748 F801      		movw r30,r16
 1636 074a 838F      		std Z+27,r24
 1637               	.LM259:
 1638 074c E091 0000 		lds r30,nRF24L01P
 1639 0750 F091 0000 		lds r31,(nRF24L01P)+1
 1640 0754 8481      		ldd r24,Z+4
 1641 0756 F801      		movw r30,r16
 1642 0758 848F      		std Z+28,r24
 1643               	.LM260:
 1644 075a F58E      		std Z+29,r15
 1645               	.LM261:
 1646 075c C801      		movw r24,r16
 1647 075e 6EE1      		ldi r22,lo8(30)
 1648 0760 0E94 0000 		call nRF24L01P_Calcuate_CRC_Block
 1649               	.LM262:
 1650 0764 F801      		movw r30,r16
 1651 0766 968F      		std Z+30,r25
 1652               	.LM263:
 1653 0768 878F      		std Z+31,r24
 1654               	.LM264:
 1655 076a C801      		movw r24,r16
 1656 076c 0E94 0000 		call nRF24L01P_Write_Data_To_Transmit_Buffer
 1657               	.LBB125:
 1658               	.LBB126:
 1659               	.LM265:
 1660 0770 5F9A      		sbi 43-32,7
 1661               	.LBE126:
 1662               	.LBE125:
 1663               	.LM266:
 1664 0772 0E94 0000 		call nRF24L01P_Wait_Till_Transmission_Completes
 1665               	.LBB127:
 1666               	.LBB128:
 1667               	.LM267:
 1668 0776 5F98      		cbi 43-32,7
 1669               	/* epilogue start */
 1670               	.LBE128:
 1671               	.LBE127:
 1672               	.LM268:
 1673 0778 1F91      		pop r17
 1674 077a 0F91      		pop r16
 1675               	.LVL82:
 1676 077c FF90      		pop r15
 1677               	.LVL83:
 1678 077e 0895      		ret
 1679               	.LFE49:
 1681               	.global	nRF24L01P_Recieve_Basic
 1683               	nRF24L01P_Recieve_Basic:
 1684               	.LFB50:
 1685               	.LM269:
 1686               	.LVL84:
 1687 0780 CF92      		push r12
 1688 0782 DF92      		push r13
 1689 0784 EF92      		push r14
 1690 0786 FF92      		push r15
 1691 0788 0F93      		push r16
 1692 078a 1F93      		push r17
 1693 078c CF93      		push r28
 1694 078e DF93      		push r29
 1695               	/* prologue: function */
 1696               	/* frame size = 0 */
 1697 0790 7C01      		movw r14,r24
 1698               	.LM270:
 1699 0792 E091 0000 		lds r30,nRF24L01P
 1700 0796 F091 0000 		lds r31,(nRF24L01P)+1
 1701 079a 1086      		std Z+8,__zero_reg__
 1702 079c 1782      		std Z+7,__zero_reg__
 1703               	.LM271:
 1704 079e 0E94 0000 		call nRF24L01P_Set_Mode_Rx
 1705               	.LVL85:
 1706               	.LBB129:
 1707               	.LBB130:
 1708               	.LBB131:
 1709               	.LBB132:
 1710               	.LBB133:
 1711               	.LBB134:
 1712               	.LM272:
 1713 07a2 7CE2      		ldi r23,lo8(300)
 1714 07a4 C72E      		mov r12,r23
 1715 07a6 71E0      		ldi r23,hi8(300)
 1716 07a8 D72E      		mov r13,r23
 1717 07aa 00C0      		rjmp .L138
 1718               	.LVL86:
 1719               	.L141:
 1720               	.LBE134:
 1721               	.LBE133:
 1722               	.LBE132:
 1723               	.LBE131:
 1724               	.LBE130:
 1725               	.LBE129:
 1726               	.LM273:
 1727 07ac 0E94 0000 		call nRF24L01P_Receive_Buffer_Not_Empty
 1728 07b0 8823      		tst r24
 1729 07b2 01F0      		breq .L139
 1730               	.LBB140:
 1731               	.LM274:
 1732 07b4 C701      		movw r24,r14
 1733 07b6 0E94 0000 		call nRF24L01P_Read_Data_From_Receive_Buffer
 1734               	.LM275:
 1735 07ba F701      		movw r30,r14
 1736 07bc D68D      		ldd r29,Z+30
 1737               	.LVL87:
 1738 07be C0E0      		ldi r28,lo8(0)
 1739               	.LVL88:
 1740               	.LM276:
 1741 07c0 078D      		ldd r16,Z+31
 1742 07c2 10E0      		ldi r17,lo8(0)
 1743               	.LVL89:
 1744 07c4 0C2B      		or r16,r28
 1745 07c6 1D2B      		or r17,r29
 1746               	.LVL90:
 1747               	.LM277:
 1748 07c8 C701      		movw r24,r14
 1749 07ca 6EE1      		ldi r22,lo8(30)
 1750 07cc 0E94 0000 		call nRF24L01P_Calcuate_CRC_Block
 1751               	.LM278:
 1752 07d0 0817      		cp r16,r24
 1753 07d2 1907      		cpc r17,r25
 1754 07d4 01F4      		brne .L139
 1755 07d6 81E0      		ldi r24,lo8(1)
 1756               	.LVL91:
 1757 07d8 00C0      		rjmp .L140
 1758               	.LVL92:
 1759               	.L139:
 1760               	.LBE140:
 1761               	.LBB141:
 1762               	.LBB139:
 1763               	.LBB138:
 1764               	.LBB137:
 1765               	.LBB136:
 1766               	.LBB135:
 1767               	.LM279:
 1768 07da C601      		movw r24,r12
 1769               	.LVL93:
 1770               	/* #APP */
 1771               	 ;  105 "c:/winavr-20100110/lib/gcc/../../avr/include/util/delay_basic.h" 1
 1772 07dc 0197      		1: sbiw r24,1
 1773 07de 01F4      		brne 1b
 1774               	 ;  0 "" 2
 1775               	/* #NOAPP */
 1776               	.LBE135:
 1777               	.LBE136:
 1778               	.LBE137:
 1779               	.LBE138:
 1780               	.LBE139:
 1781               	.LBE141:
 1782               	.LM280:
 1783 07e0 E091 0000 		lds r30,nRF24L01P
 1784 07e4 F091 0000 		lds r31,(nRF24L01P)+1
 1785 07e8 8781      		ldd r24,Z+7
 1786 07ea 9085      		ldd r25,Z+8
 1787               	.LVL94:
 1788 07ec 0196      		adiw r24,1
 1789 07ee 9087      		std Z+8,r25
 1790 07f0 8783      		std Z+7,r24
 1791               	.L138:
 1792               	.LM281:
 1793 07f2 E091 0000 		lds r30,nRF24L01P
 1794 07f6 F091 0000 		lds r31,(nRF24L01P)+1
 1795 07fa 2781      		ldd r18,Z+7
 1796 07fc 3085      		ldd r19,Z+8
 1797 07fe 8581      		ldd r24,Z+5
 1798 0800 9681      		ldd r25,Z+6
 1799 0802 2817      		cp r18,r24
 1800 0804 3907      		cpc r19,r25
 1801 0806 00F0      		brlo .L141
 1802 0808 80E0      		ldi r24,lo8(0)
 1803               	.LVL95:
 1804               	.L140:
 1805               	.LVL96:
 1806               	/* epilogue start */
 1807               	.LM282:
 1808 080a DF91      		pop r29
 1809 080c CF91      		pop r28
 1810 080e 1F91      		pop r17
 1811               	.LVL97:
 1812 0810 0F91      		pop r16
 1813               	.LVL98:
 1814 0812 FF90      		pop r15
 1815 0814 EF90      		pop r14
 1816               	.LVL99:
 1817 0816 DF90      		pop r13
 1818 0818 CF90      		pop r12
 1819 081a 0895      		ret
 1820               	.LFE50:
 1822               	.global	nRF24L01P_Transmit_With_ACK
 1824               	nRF24L01P_Transmit_With_ACK:
 1825               	.LFB51:
 1826               	.LM283:
 1827               	.LVL100:
 1828 081c CF93      		push r28
 1829 081e DF93      		push r29
 1830               	/* prologue: function */
 1831               	/* frame size = 0 */
 1832 0820 EC01      		movw r28,r24
 1833               	.LM284:
 1834 0822 E091 0000 		lds r30,nRF24L01P
 1835 0826 F091 0000 		lds r31,(nRF24L01P)+1
 1836 082a 8785      		ldd r24,Z+15
 1837               	.LVL101:
 1838 082c 8823      		tst r24
 1839 082e 01F0      		breq .L144
 1840               	.LM285:
 1841 0830 81E0      		ldi r24,lo8(1)
 1842 0832 8A8F      		std Y+26,r24
 1843 0834 00C0      		rjmp .L145
 1844               	.L144:
 1845               	.LM286:
 1846 0836 1A8E      		std Y+26,__zero_reg__
 1847               	.L145:
 1848               	.LM287:
 1849 0838 CE01      		movw r24,r28
 1850 083a 0E94 0000 		call nRF24L01P_Transmit_Basic
 1851               	.LVL102:
 1852               	.LM288:
 1853 083e CE01      		movw r24,r28
 1854 0840 0E94 0000 		call nRF24L01P_Recieve_Basic
 1855 0844 8111      		cpse r24,__zero_reg__
 1856 0846 81E0      		ldi r24,lo8(1)
 1857               	.L146:
 1858               	/* epilogue start */
 1859               	.LM289:
 1860 0848 DF91      		pop r29
 1861 084a CF91      		pop r28
 1862               	.LVL103:
 1863 084c 0895      		ret
 1864               	.LFE51:
 1866               	.global	nRF24L01P_Recieve_With_ACK
 1868               	nRF24L01P_Recieve_With_ACK:
 1869               	.LFB52:
 1870               	.LM290:
 1871               	.LVL104:
 1872 084e CF93      		push r28
 1873 0850 DF93      		push r29
 1874               	/* prologue: function */
 1875               	/* frame size = 0 */
 1876 0852 EC01      		movw r28,r24
 1877               	.LM291:
 1878 0854 0E94 0000 		call nRF24L01P_Recieve_Basic
 1879               	.LVL105:
 1880 0858 8823      		tst r24
 1881 085a 01F0      		breq .L149
 1882               	.LM292:
 1883 085c 8A8D      		ldd r24,Y+26
 1884 085e 8130      		cpi r24,lo8(1)
 1885 0860 01F4      		brne .L149
 1886 0862 E091 0000 		lds r30,nRF24L01P
 1887 0866 F091 0000 		lds r31,(nRF24L01P)+1
 1888 086a 9381      		ldd r25,Z+3
 1889 086c 8C8D      		ldd r24,Y+28
 1890 086e 9817      		cp r25,r24
 1891 0870 01F4      		brne .L149
 1892               	.LBB142:
 1893               	.LBB143:
 1894               	.LBB144:
 1895               	.LBB145:
 1896               	.LBB146:
 1897               	.LBB147:
 1898               	.LM293:
 1899 0872 8CED      		ldi r24,lo8(1500)
 1900 0874 95E0      		ldi r25,hi8(1500)
 1901               	.LVL106:
 1902               	/* #APP */
 1903               	 ;  105 "c:/winavr-20100110/lib/gcc/../../avr/include/util/delay_basic.h" 1
 1904 0876 0197      		1: sbiw r24,1
 1905 0878 01F4      		brne 1b
 1906               	 ;  0 "" 2
 1907               	/* #NOAPP */
 1908               	.LBE147:
 1909               	.LBE146:
 1910               	.LBE145:
 1911               	.LBE144:
 1912               	.LBE143:
 1913               	.LBE142:
 1914               	.LBB148:
 1915               	.LBB149:
 1916               	.LM294:
 1917 087a 8B8D      		ldd r24,Y+27
 1918               	.LVL107:
 1919 087c 8483      		std Z+4,r24
 1920               	.LBE149:
 1921               	.LBE148:
 1922               	.LM295:
 1923 087e CE01      		movw r24,r28
 1924 0880 62E0      		ldi r22,lo8(2)
 1925 0882 0E94 0000 		call nRF24L01P_Transmit_Basic
 1926 0886 81E0      		ldi r24,lo8(1)
 1927               	.LVL108:
 1928 0888 00C0      		rjmp .L150
 1929               	.LVL109:
 1930               	.L149:
 1931 088a 80E0      		ldi r24,lo8(0)
 1932               	.LVL110:
 1933               	.L150:
 1934               	.LVL111:
 1935               	/* epilogue start */
 1936               	.LM296:
 1937 088c DF91      		pop r29
 1938 088e CF91      		pop r28
 1939               	.LVL112:
 1940 0890 0895      		ret
 1941               	.LFE52:
 1943               		.comm nRF24L01P_type,19,1
 1944               		.comm nRF24L01P,2,1
 2337               	.Letext0:
DEFINED SYMBOLS
                            *ABS*:00000000 nrf24l01pv2.c
C:\Users\FARIDU~1\AppData\Local\Temp/ccwskoST.s:2      *ABS*:0000003f __SREG__
C:\Users\FARIDU~1\AppData\Local\Temp/ccwskoST.s:3      *ABS*:0000003e __SP_H__
C:\Users\FARIDU~1\AppData\Local\Temp/ccwskoST.s:4      *ABS*:0000003d __SP_L__
C:\Users\FARIDU~1\AppData\Local\Temp/ccwskoST.s:5      *ABS*:00000034 __CCP__
C:\Users\FARIDU~1\AppData\Local\Temp/ccwskoST.s:6      *ABS*:00000000 __tmp_reg__
C:\Users\FARIDU~1\AppData\Local\Temp/ccwskoST.s:7      *ABS*:00000001 __zero_reg__
C:\Users\FARIDU~1\AppData\Local\Temp/ccwskoST.s:18     .text:00000000 nRF24L01P_Struct_Init
                            *COM*:00000013 nRF24L01P_type
                            *COM*:00000002 nRF24L01P
C:\Users\FARIDU~1\AppData\Local\Temp/ccwskoST.s:71     .text:00000060 nRF24L01P_CSN_High
C:\Users\FARIDU~1\AppData\Local\Temp/ccwskoST.s:85     .text:00000064 nRF24L01P_CSN_Low
C:\Users\FARIDU~1\AppData\Local\Temp/ccwskoST.s:99     .text:00000068 nRF24L01P_CE_High
C:\Users\FARIDU~1\AppData\Local\Temp/ccwskoST.s:113    .text:0000006c nRF24L01P_CE_Low
C:\Users\FARIDU~1\AppData\Local\Temp/ccwskoST.s:127    .text:00000070 nRF24L01P_Enable_GPIO
C:\Users\FARIDU~1\AppData\Local\Temp/ccwskoST.s:161    .text:00000082 nRF24L01P_Disable_GPIO
C:\Users\FARIDU~1\AppData\Local\Temp/ccwskoST.s:191    .text:00000090 nRF24L01P_Enable_SPI
C:\Users\FARIDU~1\AppData\Local\Temp/ccwskoST.s:209    .text:0000009a nRF24L01P_Disable_SPI
C:\Users\FARIDU~1\AppData\Local\Temp/ccwskoST.s:225    .text:000000a0 nRF24L01P_Enable
C:\Users\FARIDU~1\AppData\Local\Temp/ccwskoST.s:249    .text:000000ae nRF24L01P_Disable
C:\Users\FARIDU~1\AppData\Local\Temp/ccwskoST.s:271    .text:000000b8 nRF24L01P_Error_Clear
C:\Users\FARIDU~1\AppData\Local\Temp/ccwskoST.s:290    .text:000000c8 nRF24L01P_Get_Error
C:\Users\FARIDU~1\AppData\Local\Temp/ccwskoST.s:306    .text:000000d4 nRF24L01P_Error_Timeout
C:\Users\FARIDU~1\AppData\Local\Temp/ccwskoST.s:356    .text:000000fe nRF24L01P_SPI_Transfer
C:\Users\FARIDU~1\AppData\Local\Temp/ccwskoST.s:416    .text:0000013c nRF24L01P_Calcuate_CRC
C:\Users\FARIDU~1\AppData\Local\Temp/ccwskoST.s:470    .text:00000168 nRF24L01P_Calcuate_CRC_Block
C:\Users\FARIDU~1\AppData\Local\Temp/ccwskoST.s:522    .text:00000198 nRF24L01P_ReadWrite_Register
C:\Users\FARIDU~1\AppData\Local\Temp/ccwskoST.s:618    .text:000001fa nRF24L01P_Flush_Transmit_Buffer
C:\Users\FARIDU~1\AppData\Local\Temp/ccwskoST.s:639    .text:00000212 nRF24L01P_Write_Data_To_Transmit_Buffer
C:\Users\FARIDU~1\AppData\Local\Temp/ccwskoST.s:660    .text:00000220 nRF24L01P_Transmit_Buffer_Empty
C:\Users\FARIDU~1\AppData\Local\Temp/ccwskoST.s:693    .text:00000252 nRF24L01P_Wait_Till_Transmission_Completes
C:\Users\FARIDU~1\AppData\Local\Temp/ccwskoST.s:740    .text:00000270 nRF24L01P_Flush_Receive_Buffer
C:\Users\FARIDU~1\AppData\Local\Temp/ccwskoST.s:761    .text:00000288 nRF24L01P_Read_Data_From_Receive_Buffer
C:\Users\FARIDU~1\AppData\Local\Temp/ccwskoST.s:782    .text:00000296 nRF24L01P_Receive_Buffer_Not_Empty
C:\Users\FARIDU~1\AppData\Local\Temp/ccwskoST.s:810    .text:000002be nRF24L01P_Get_Mode
C:\Users\FARIDU~1\AppData\Local\Temp/ccwskoST.s:852    .text:000002f6 nRF24L01P_Set_Mode_Sleep
C:\Users\FARIDU~1\AppData\Local\Temp/ccwskoST.s:879    .text:0000031a nRF24L01P_Set_Mode_Tx
C:\Users\FARIDU~1\AppData\Local\Temp/ccwskoST.s:916    .text:00000348 nRF24L01P_Set_Mode_Rx
C:\Users\FARIDU~1\AppData\Local\Temp/ccwskoST.s:951    .text:00000372 nRF24L01P_ReadModifyWrite
C:\Users\FARIDU~1\AppData\Local\Temp/ccwskoST.s:1026   .text:000003e6 nRF24L01P_Get_Channel
C:\Users\FARIDU~1\AppData\Local\Temp/ccwskoST.s:1050   .text:00000408 nRF24L01P_Set_Channel
C:\Users\FARIDU~1\AppData\Local\Temp/ccwskoST.s:1080   .text:00000428 nRF24L01P_Get_Speed
C:\Users\FARIDU~1\AppData\Local\Temp/ccwskoST.s:1138   .text:00000474 nRF24L01P_Set_Speed
C:\Users\FARIDU~1\AppData\Local\Temp/ccwskoST.s:1189   .text:000004ac nRF24L01P_Get_Tx_Power
C:\Users\FARIDU~1\AppData\Local\Temp/ccwskoST.s:1218   .text:000004d4 nRF24L01P_Set_Tx_Power
C:\Users\FARIDU~1\AppData\Local\Temp/ccwskoST.s:1281   .text:00000518 nRF24L01P_Set_Own_Address
C:\Users\FARIDU~1\AppData\Local\Temp/ccwskoST.s:1298   .text:00000524 nRF24L01P_Set_Destination_Address
C:\Users\FARIDU~1\AppData\Local\Temp/ccwskoST.s:1315   .text:00000530 nRF24L01P_Set_Receive_Timeout
C:\Users\FARIDU~1\AppData\Local\Temp/ccwskoST.s:1333   .text:0000053e nRF24L01P_Set_MaxRetransmission
C:\Users\FARIDU~1\AppData\Local\Temp/ccwskoST.s:1351   .text:0000054c nRF24L01P_Deep_Sleep
C:\Users\FARIDU~1\AppData\Local\Temp/ccwskoST.s:1372   .text:00000564 nRF24L01P_WakeUp
C:\Users\FARIDU~1\AppData\Local\Temp/ccwskoST.s:1407   .text:0000057c nRF24L01P_Init
C:\Users\FARIDU~1\AppData\Local\Temp/ccwskoST.s:1617   .text:00000730 nRF24L01P_Transmit_Basic
C:\Users\FARIDU~1\AppData\Local\Temp/ccwskoST.s:1683   .text:00000780 nRF24L01P_Recieve_Basic
C:\Users\FARIDU~1\AppData\Local\Temp/ccwskoST.s:1824   .text:0000081c nRF24L01P_Transmit_With_ACK
C:\Users\FARIDU~1\AppData\Local\Temp/ccwskoST.s:1868   .text:0000084e nRF24L01P_Recieve_With_ACK

UNDEFINED SYMBOLS
__do_copy_data
__do_clear_bss
