   1               		.file	"main.c"
   2               	__SREG__ = 0x3f
   3               	__SP_H__ = 0x3e
   4               	__SP_L__ = 0x3d
   5               	__CCP__  = 0x34
   6               	__tmp_reg__ = 0
   7               	__zero_reg__ = 1
  15               	.Ltext0:
  16               	.global	main
  18               	main:
  19               	.LFB6:
  20               	.LM1:
  21 0000 CF92      		push r12
  22 0002 DF92      		push r13
  23 0004 EF92      		push r14
  24 0006 FF92      		push r15
  25 0008 0F93      		push r16
  26 000a 1F93      		push r17
  27 000c DF93      		push r29
  28 000e CF93      		push r28
  29 0010 CDB7      		in r28,__SP_L__
  30 0012 DEB7      		in r29,__SP_H__
  31 0014 A097      		sbiw r28,32
  32 0016 0FB6      		in __tmp_reg__,__SREG__
  33 0018 F894      		cli
  34 001a DEBF      		out __SP_H__,r29
  35 001c 0FBE      		out __SREG__,__tmp_reg__
  36 001e CDBF      		out __SP_L__,r28
  37               	/* prologue: function */
  38               	/* frame size = 32 */
  39               	.LM2:
  40 0020 549A      		sbi 42-32,4
  41               	.LM3:
  42 0022 5C98      		cbi 43-32,4
  43               	.LM4:
  44 0024 8AB1      		in r24,42-32
  45 0026 837F      		andi r24,lo8(-13)
  46 0028 8AB9      		out 42-32,r24
  47               	.LM5:
  48 002a 8BB1      		in r24,43-32
  49 002c 8C60      		ori r24,lo8(12)
  50 002e 8BB9      		out 43-32,r24
  51               	.LM6:
  52 0030 0E94 0000 		call nrf24l01p_init
  53               	.LM7:
  54 0034 0E94 0000 		call Sleep_Init
  55               	.LM8:
  56 0038 0E94 0000 		call Vsns_Init
  57               	.LM9:
  58 003c 0E94 0000 		call led_init
  59               	.LBB2:
  60               	.LM10:
  61 0040 8E01      		movw r16,r28
  62 0042 0F5F      		subi r16,lo8(-(1))
  63 0044 1F4F      		sbci r17,hi8(-(1))
  64               	.LM11:
  65 0046 2DE0      		ldi r18,lo8(13)
  66 0048 C22E      		mov r12,r18
  67               	.LM12:
  68 004a 92E0      		ldi r25,lo8(2)
  69 004c E92E      		mov r14,r25
  70 004e F12C      		mov r15,__zero_reg__
  71 0050 EC0E      		add r14,r28
  72 0052 FD1E      		adc r15,r29
  73 0054 8AE0      		ldi r24,lo8(10)
  74 0056 D82E      		mov r13,r24
  75               	.L2:
  76               	.LM13:
  77 0058 0E94 0000 		call led_on
  78               	.LM14:
  79 005c 0E94 0000 		call Vsns_V_Read
  80               	.LM15:
  81 0060 A0E0      		ldi r26,lo8(0)
  82 0062 B0E0      		ldi r27,hi8(0)
  83               	.LVL0:
  84 0064 BC01      		movw r22,r24
  85 0066 CD01      		movw r24,r26
  86               	.LVL1:
  87 0068 A801      		movw r20,r16
  88 006a 20E0      		ldi r18,lo8(0)
  89 006c 0E94 0000 		call dataconv_dword_to_num
  90               	.LVL2:
  91               	.LM16:
  92 0070 0E94 0000 		call dataconv_dword_to_num_len
  93 0074 F801      		movw r30,r16
  94 0076 E80F      		add r30,r24
  95 0078 F11D      		adc r31,__zero_reg__
  96 007a C082      		st Z,r12
  97               	.LM17:
  98 007c 0E94 0000 		call dataconv_dword_to_num_len
  99 0080 F701      		movw r30,r14
 100 0082 E80F      		add r30,r24
 101 0084 F11D      		adc r31,__zero_reg__
 102 0086 D082      		st Z,r13
 103               	.LM18:
 104 0088 0E94 0000 		call dataconv_dword_to_num_len
 105 008c 682F      		mov r22,r24
 106 008e 6E5F      		subi r22,lo8(-(2))
 107 0090 C801      		movw r24,r16
 108 0092 0E94 0000 		call nrf24l01p_tx_basic
 109               	.LM19:
 110 0096 80E0      		ldi r24,lo8(0)
 111 0098 0E94 0000 		call nrf24l01p_mode_set
 112               	.LM20:
 113 009c 0E94 0000 		call led_off
 114               	.LM21:
 115 00a0 0E94 0000 		call Deep_Sleep
 116 00a4 00C0      		rjmp .L2
 117               	.LBE2:
 118               	.LFE6:
 144               	.Letext0:
DEFINED SYMBOLS
                            *ABS*:00000000 main.c
C:\Users\FARIDU~1\AppData\Local\Temp/cc5mi7B3.s:2      *ABS*:0000003f __SREG__
C:\Users\FARIDU~1\AppData\Local\Temp/cc5mi7B3.s:3      *ABS*:0000003e __SP_H__
C:\Users\FARIDU~1\AppData\Local\Temp/cc5mi7B3.s:4      *ABS*:0000003d __SP_L__
C:\Users\FARIDU~1\AppData\Local\Temp/cc5mi7B3.s:5      *ABS*:00000034 __CCP__
C:\Users\FARIDU~1\AppData\Local\Temp/cc5mi7B3.s:6      *ABS*:00000000 __tmp_reg__
C:\Users\FARIDU~1\AppData\Local\Temp/cc5mi7B3.s:7      *ABS*:00000001 __zero_reg__
C:\Users\FARIDU~1\AppData\Local\Temp/cc5mi7B3.s:18     .text:00000000 main

UNDEFINED SYMBOLS
nrf24l01p_init
Sleep_Init
Vsns_Init
led_init
led_on
Vsns_V_Read
dataconv_dword_to_num
dataconv_dword_to_num_len
nrf24l01p_tx_basic
nrf24l01p_mode_set
led_off
Deep_Sleep
